
zig-out/bin/firmware.elf:	file format elf32-littlearm

Disassembly of section .text:

08000000 <.text>:
 8000000: 8000         	strh	r0, [r0]
 8000002: 2001         	movs	r0, #1
 8000004: 01bb         	lsls	r3, r7, #6
 8000006: 0800         	lsrs	r0, r0, #32
 8000008: 03d3         	lsls	r3, r2, #15
 800000a: 0800         	lsrs	r0, r0, #32
 800000c: 03d7         	lsls	r7, r2, #15
 800000e: 0800         	lsrs	r0, r0, #32
 8000010: 03d7         	lsls	r7, r2, #15
 8000012: 0800         	lsrs	r0, r0, #32
 8000014: 03d7         	lsls	r7, r2, #15
 8000016: 0800         	lsrs	r0, r0, #32
		...
 8000028: 03d7         	lsls	r7, r2, #15
 800002a: 0800         	lsrs	r0, r0, #32
 800002c: 03d7         	lsls	r7, r2, #15
 800002e: 0800         	lsrs	r0, r0, #32
 8000030: 03d7         	lsls	r7, r2, #15
 8000032: 0800         	lsrs	r0, r0, #32
 8000034: 0000         	movs	r0, r0
 8000036: 0000         	movs	r0, r0
 8000038: 03d7         	lsls	r7, r2, #15
 800003a: 0800         	lsrs	r0, r0, #32
 800003c: 03d7         	lsls	r7, r2, #15
 800003e: 0800         	lsrs	r0, r0, #32
 8000040: 03d7         	lsls	r7, r2, #15
 8000042: 0800         	lsrs	r0, r0, #32
 8000044: 03d7         	lsls	r7, r2, #15
 8000046: 0800         	lsrs	r0, r0, #32
 8000048: 03d7         	lsls	r7, r2, #15
 800004a: 0800         	lsrs	r0, r0, #32
 800004c: 03d7         	lsls	r7, r2, #15
 800004e: 0800         	lsrs	r0, r0, #32
 8000050: 03d7         	lsls	r7, r2, #15
 8000052: 0800         	lsrs	r0, r0, #32
 8000054: 03d7         	lsls	r7, r2, #15
 8000056: 0800         	lsrs	r0, r0, #32
 8000058: 03d7         	lsls	r7, r2, #15
 800005a: 0800         	lsrs	r0, r0, #32
 800005c: 03d7         	lsls	r7, r2, #15
 800005e: 0800         	lsrs	r0, r0, #32
 8000060: 03d7         	lsls	r7, r2, #15
 8000062: 0800         	lsrs	r0, r0, #32
 8000064: 03d7         	lsls	r7, r2, #15
 8000066: 0800         	lsrs	r0, r0, #32
 8000068: 03d7         	lsls	r7, r2, #15
 800006a: 0800         	lsrs	r0, r0, #32
 800006c: 03d7         	lsls	r7, r2, #15
 800006e: 0800         	lsrs	r0, r0, #32
 8000070: 03d7         	lsls	r7, r2, #15
 8000072: 0800         	lsrs	r0, r0, #32
 8000074: 03d7         	lsls	r7, r2, #15
 8000076: 0800         	lsrs	r0, r0, #32
 8000078: 03d7         	lsls	r7, r2, #15
 800007a: 0800         	lsrs	r0, r0, #32
 800007c: 03d7         	lsls	r7, r2, #15
 800007e: 0800         	lsrs	r0, r0, #32
 8000080: 03d7         	lsls	r7, r2, #15
 8000082: 0800         	lsrs	r0, r0, #32
 8000084: 03d7         	lsls	r7, r2, #15
 8000086: 0800         	lsrs	r0, r0, #32
 8000088: 03d7         	lsls	r7, r2, #15
 800008a: 0800         	lsrs	r0, r0, #32
 800008c: 03d7         	lsls	r7, r2, #15
 800008e: 0800         	lsrs	r0, r0, #32
 8000090: 03d7         	lsls	r7, r2, #15
 8000092: 0800         	lsrs	r0, r0, #32
 8000094: 03d7         	lsls	r7, r2, #15
 8000096: 0800         	lsrs	r0, r0, #32
 8000098: 03d7         	lsls	r7, r2, #15
 800009a: 0800         	lsrs	r0, r0, #32
 800009c: 03d7         	lsls	r7, r2, #15
 800009e: 0800         	lsrs	r0, r0, #32
 80000a0: 03d7         	lsls	r7, r2, #15
 80000a2: 0800         	lsrs	r0, r0, #32
 80000a4: 03d7         	lsls	r7, r2, #15
 80000a6: 0800         	lsrs	r0, r0, #32
 80000a8: 03d7         	lsls	r7, r2, #15
 80000aa: 0800         	lsrs	r0, r0, #32
 80000ac: 03d7         	lsls	r7, r2, #15
 80000ae: 0800         	lsrs	r0, r0, #32
 80000b0: 03d7         	lsls	r7, r2, #15
 80000b2: 0800         	lsrs	r0, r0, #32
 80000b4: 03d7         	lsls	r7, r2, #15
 80000b6: 0800         	lsrs	r0, r0, #32
 80000b8: 03d7         	lsls	r7, r2, #15
 80000ba: 0800         	lsrs	r0, r0, #32
 80000bc: 03d7         	lsls	r7, r2, #15
 80000be: 0800         	lsrs	r0, r0, #32
 80000c0: 03d7         	lsls	r7, r2, #15
 80000c2: 0800         	lsrs	r0, r0, #32
 80000c4: 03d7         	lsls	r7, r2, #15
 80000c6: 0800         	lsrs	r0, r0, #32
 80000c8: 03d7         	lsls	r7, r2, #15
 80000ca: 0800         	lsrs	r0, r0, #32
 80000cc: 03d7         	lsls	r7, r2, #15
 80000ce: 0800         	lsrs	r0, r0, #32
 80000d0: 03d7         	lsls	r7, r2, #15
 80000d2: 0800         	lsrs	r0, r0, #32
 80000d4: 03d7         	lsls	r7, r2, #15
 80000d6: 0800         	lsrs	r0, r0, #32
 80000d8: 03d7         	lsls	r7, r2, #15
 80000da: 0800         	lsrs	r0, r0, #32
 80000dc: 03d7         	lsls	r7, r2, #15
 80000de: 0800         	lsrs	r0, r0, #32
 80000e0: 03d7         	lsls	r7, r2, #15
 80000e2: 0800         	lsrs	r0, r0, #32
 80000e4: 03d7         	lsls	r7, r2, #15
 80000e6: 0800         	lsrs	r0, r0, #32
 80000e8: 03d7         	lsls	r7, r2, #15
 80000ea: 0800         	lsrs	r0, r0, #32
 80000ec: 03d7         	lsls	r7, r2, #15
 80000ee: 0800         	lsrs	r0, r0, #32
 80000f0: 03d7         	lsls	r7, r2, #15
 80000f2: 0800         	lsrs	r0, r0, #32
 80000f4: 03d7         	lsls	r7, r2, #15
 80000f6: 0800         	lsrs	r0, r0, #32
 80000f8: 03d7         	lsls	r7, r2, #15
 80000fa: 0800         	lsrs	r0, r0, #32
 80000fc: 03d7         	lsls	r7, r2, #15
 80000fe: 0800         	lsrs	r0, r0, #32
 8000100: 03d7         	lsls	r7, r2, #15
 8000102: 0800         	lsrs	r0, r0, #32
 8000104: 03d7         	lsls	r7, r2, #15
 8000106: 0800         	lsrs	r0, r0, #32
 8000108: 03d7         	lsls	r7, r2, #15
 800010a: 0800         	lsrs	r0, r0, #32
 800010c: 03d7         	lsls	r7, r2, #15
 800010e: 0800         	lsrs	r0, r0, #32
 8000110: 03d7         	lsls	r7, r2, #15
 8000112: 0800         	lsrs	r0, r0, #32
 8000114: 03d7         	lsls	r7, r2, #15
 8000116: 0800         	lsrs	r0, r0, #32
 8000118: 03d7         	lsls	r7, r2, #15
 800011a: 0800         	lsrs	r0, r0, #32
 800011c: 03d7         	lsls	r7, r2, #15
 800011e: 0800         	lsrs	r0, r0, #32
 8000120: 03d7         	lsls	r7, r2, #15
 8000122: 0800         	lsrs	r0, r0, #32
 8000124: 03d7         	lsls	r7, r2, #15
 8000126: 0800         	lsrs	r0, r0, #32
 8000128: 03d7         	lsls	r7, r2, #15
 800012a: 0800         	lsrs	r0, r0, #32
 800012c: 03d7         	lsls	r7, r2, #15
 800012e: 0800         	lsrs	r0, r0, #32
 8000130: 03d7         	lsls	r7, r2, #15
 8000132: 0800         	lsrs	r0, r0, #32
 8000134: 03d7         	lsls	r7, r2, #15
 8000136: 0800         	lsrs	r0, r0, #32
 8000138: 03d7         	lsls	r7, r2, #15
 800013a: 0800         	lsrs	r0, r0, #32
 800013c: 03d7         	lsls	r7, r2, #15
 800013e: 0800         	lsrs	r0, r0, #32
 8000140: 03d7         	lsls	r7, r2, #15
 8000142: 0800         	lsrs	r0, r0, #32
 8000144: 03d7         	lsls	r7, r2, #15
 8000146: 0800         	lsrs	r0, r0, #32
 8000148: 03d7         	lsls	r7, r2, #15
 800014a: 0800         	lsrs	r0, r0, #32
 800014c: 03d7         	lsls	r7, r2, #15
 800014e: 0800         	lsrs	r0, r0, #32
 8000150: 03d7         	lsls	r7, r2, #15
 8000152: 0800         	lsrs	r0, r0, #32
 8000154: 03d7         	lsls	r7, r2, #15
 8000156: 0800         	lsrs	r0, r0, #32
 8000158: 03d7         	lsls	r7, r2, #15
 800015a: 0800         	lsrs	r0, r0, #32
 800015c: 03d7         	lsls	r7, r2, #15
 800015e: 0800         	lsrs	r0, r0, #32
 8000160: 03d7         	lsls	r7, r2, #15
 8000162: 0800         	lsrs	r0, r0, #32
 8000164: 03d7         	lsls	r7, r2, #15
 8000166: 0800         	lsrs	r0, r0, #32
 8000168: 03d7         	lsls	r7, r2, #15
 800016a: 0800         	lsrs	r0, r0, #32
 800016c: 03d7         	lsls	r7, r2, #15
 800016e: 0800         	lsrs	r0, r0, #32
 8000170: 03d7         	lsls	r7, r2, #15
 8000172: 0800         	lsrs	r0, r0, #32
 8000174: 03d7         	lsls	r7, r2, #15
 8000176: 0800         	lsrs	r0, r0, #32
 8000178: 03d7         	lsls	r7, r2, #15
 800017a: 0800         	lsrs	r0, r0, #32
 800017c: 03d7         	lsls	r7, r2, #15
 800017e: 0800         	lsrs	r0, r0, #32
 8000180: 03d7         	lsls	r7, r2, #15
 8000182: 0800         	lsrs	r0, r0, #32
 8000184: 03d7         	lsls	r7, r2, #15
 8000186: 0800         	lsrs	r0, r0, #32
 8000188: d4d4         	bmi	0x8000134 <.text+0x134> @ imm = #-88
 800018a: d4d4         	bmi	0x8000136 <.text+0x136> @ imm = #-88
 800018c: d4d4         	bmi	0x8000138 <.text+0x138> @ imm = #-88
 800018e: d4d4         	bmi	0x800013a <.text+0x13a> @ imm = #-88
 8000190: b580         	push	{r7, lr}
 8000192: 466f         	mov	r7, sp
 8000194: f000 f801    	bl	0x800019a <.text+0x19a> @ imm = #2
 8000198: bd80         	pop	{r7, pc}
 800019a: b580         	push	{r7, lr}
 800019c: 466f         	mov	r7, sp
 800019e: b082         	sub	sp, #8
 80001a0: f248 0000    	movw	r0, #32768
 80001a4: f6c0 0000    	movt	r0, #2048
 80001a8: 9001         	str	r0, [sp, #4]
 80001aa: f248 0004    	movw	r0, #32772
 80001ae: f6c0 0000    	movt	r0, #2048
 80001b2: 6800         	ldr	r0, [r0]
 80001b4: 4780         	blx	r0
 80001b6: b002         	add	sp, #8
 80001b8: bd80         	pop	{r7, pc}
 80001ba: b580         	push	{r7, lr}
 80001bc: 466f         	mov	r7, sp
 80001be: b092         	sub	sp, #72
 80001c0: b672         	cpsid i
 80001c2: e7ff         	b	0x80001c4 <.text+0x1c4> @ imm = #-2
 80001c4: f240 216c    	movw	r1, #620
 80001c8: f2c2 0100    	movt	r1, #8192
 80001cc: 910b         	str	r1, [sp, #44]
 80001ce: f240 206c    	movw	r0, #620
 80001d2: f2c2 0000    	movt	r0, #8192
 80001d6: 900c         	str	r0, [sp, #48]
 80001d8: 1a43         	subs	r3, r0, r1
 80001da: f04f 0200    	mov.w	r2, #0
 80001de: f142 0200    	adc	r2, r2, #0
 80001e2: f082 0201    	eor	r2, r2, #1
 80001e6: 930a         	str	r3, [sp, #40]
 80001e8: 4288         	cmp	r0, r1
 80001ea: d315         	blo	0x8000218 <.text+0x218> @ imm = #42
 80001ec: e020         	b	0x8000230 <.text+0x230> @ imm = #64
 80001ee: f240 0100    	movw	r1, #0
 80001f2: f2c2 0100    	movt	r1, #8192
 80001f6: 910e         	str	r1, [sp, #56]
 80001f8: f240 206c    	movw	r0, #620
 80001fc: f2c2 0000    	movt	r0, #8192
 8000200: 900f         	str	r0, [sp, #60]
 8000202: 1a43         	subs	r3, r0, r1
 8000204: f04f 0200    	mov.w	r2, #0
 8000208: f142 0200    	adc	r2, r2, #0
 800020c: f082 0201    	eor	r2, r2, #1
 8000210: 9309         	str	r3, [sp, #36]
 8000212: 4288         	cmp	r0, r1
 8000214: d32b         	blo	0x800026e <.text+0x26e> @ imm = #86
 8000216: e036         	b	0x8000286 <.text+0x286> @ imm = #108
 8000218: f240 0000    	movw	r0, #0
 800021c: f2c2 0000    	movt	r0, #8192
 8000220: f243 03b8    	movw	r3, #12472
 8000224: f6c0 0300    	movt	r3, #2048
 8000228: 2110         	movs	r1, #16
 800022a: 2200         	movs	r2, #0
 800022c: f000 f8a8    	bl	0x8000380 <.text+0x380> @ imm = #336
 8000230: 980a         	ldr	r0, [sp, #40]
 8000232: 4601         	mov	r1, r0
 8000234: 9108         	str	r1, [sp, #32]
 8000236: 900d         	str	r0, [sp, #52]
 8000238: 2800         	cmp	r0, #0
 800023a: d204         	bhs	0x8000246 <.text+0x246> @ imm = #8
 800023c: e004         	b	0x8000248 <.text+0x248> @ imm = #8
 800023e: 9808         	ldr	r0, [sp, #32]
 8000240: 2800         	cmp	r0, #0
 8000242: d20d         	bhs	0x8000260 <.text+0x260> @ imm = #26
 8000244: e00d         	b	0x8000262 <.text+0x262> @ imm = #26
 8000246: e7fa         	b	0x800023e <.text+0x23e> @ imm = #-12
 8000248: 9908         	ldr	r1, [sp, #32]
 800024a: 2000         	movs	r0, #0
 800024c: f000 f89f    	bl	0x800038e <.text+0x38e> @ imm = #318
 8000250: 9908         	ldr	r1, [sp, #32]
 8000252: f240 206c    	movw	r0, #620
 8000256: f2c2 0000    	movt	r0, #8192
 800025a: f002 fef7    	bl	0x800304c <.text+0x304c> @ imm = #11758
 800025e: e7c6         	b	0x80001ee <.text+0x1ee> @ imm = #-116
 8000260: e7f6         	b	0x8000250 <.text+0x250> @ imm = #-20
 8000262: 9908         	ldr	r1, [sp, #32]
 8000264: 2000         	movs	r0, #0
 8000266: f000 f8a3    	bl	0x80003b0 <.text+0x3b0> @ imm = #326
 800026a: b662         	cpsie i
 800026c: e07a         	b	0x8000364 <.text+0x364> @ imm = #244
 800026e: f240 0000    	movw	r0, #0
 8000272: f2c2 0000    	movt	r0, #8192
 8000276: f243 03b8    	movw	r3, #12472
 800027a: f6c0 0300    	movt	r3, #2048
 800027e: 2110         	movs	r1, #16
 8000280: 2200         	movs	r2, #0
 8000282: f000 f87d    	bl	0x8000380 <.text+0x380> @ imm = #250
 8000286: 9809         	ldr	r0, [sp, #36]
 8000288: 4601         	mov	r1, r0
 800028a: 9107         	str	r1, [sp, #28]
 800028c: 9010         	str	r0, [sp, #64]
 800028e: f243 2164    	movw	r1, #12900
 8000292: f6c0 0100    	movt	r1, #2048
 8000296: 9111         	str	r1, [sp, #68]
 8000298: 2800         	cmp	r0, #0
 800029a: d204         	bhs	0x80002a6 <.text+0x2a6> @ imm = #8
 800029c: e004         	b	0x80002a8 <.text+0x2a8> @ imm = #8
 800029e: 9807         	ldr	r0, [sp, #28]
 80002a0: 2800         	cmp	r0, #0
 80002a2: d210         	bhs	0x80002c6 <.text+0x2c6> @ imm = #32
 80002a4: e010         	b	0x80002c8 <.text+0x2c8> @ imm = #32
 80002a6: e7fa         	b	0x800029e <.text+0x29e> @ imm = #-12
 80002a8: 9907         	ldr	r1, [sp, #28]
 80002aa: 2000         	movs	r0, #0
 80002ac: f000 f86f    	bl	0x800038e <.text+0x38e> @ imm = #222
 80002b0: 9807         	ldr	r0, [sp, #28]
 80002b2: f240 0100    	movw	r1, #0
 80002b6: f2c2 0100    	movt	r1, #8192
 80002ba: 4602         	mov	r2, r0
 80002bc: 9205         	str	r2, [sp, #20]
 80002be: 9106         	str	r1, [sp, #24]
 80002c0: 2800         	cmp	r0, #0
 80002c2: d209         	bhs	0x80002d8 <.text+0x2d8> @ imm = #18
 80002c4: e009         	b	0x80002da <.text+0x2da> @ imm = #18
 80002c6: e7f3         	b	0x80002b0 <.text+0x2b0> @ imm = #-26
 80002c8: 9907         	ldr	r1, [sp, #28]
 80002ca: 2000         	movs	r0, #0
 80002cc: f000 f870    	bl	0x80003b0 <.text+0x3b0> @ imm = #224
 80002d0: 9807         	ldr	r0, [sp, #28]
 80002d2: 2800         	cmp	r0, #0
 80002d4: d211         	bhs	0x80002fa <.text+0x2fa> @ imm = #34
 80002d6: e011         	b	0x80002fc <.text+0x2fc> @ imm = #34
 80002d8: e7fa         	b	0x80002d0 <.text+0x2d0> @ imm = #-12
 80002da: 9907         	ldr	r1, [sp, #28]
 80002dc: 2000         	movs	r0, #0
 80002de: f000 f856    	bl	0x800038e <.text+0x38e> @ imm = #172
 80002e2: 9805         	ldr	r0, [sp, #20]
 80002e4: 9907         	ldr	r1, [sp, #28]
 80002e6: f243 2264    	movw	r2, #12900
 80002ea: f6c0 0200    	movt	r2, #2048
 80002ee: 9203         	str	r2, [sp, #12]
 80002f0: 4602         	mov	r2, r0
 80002f2: 9204         	str	r2, [sp, #16]
 80002f4: 4288         	cmp	r0, r1
 80002f6: d015         	beq	0x8000324 <.text+0x324> @ imm = #42
 80002f8: e015         	b	0x8000326 <.text+0x326> @ imm = #42
 80002fa: e7f2         	b	0x80002e2 <.text+0x2e2> @ imm = #-28
 80002fc: 9907         	ldr	r1, [sp, #28]
 80002fe: 2000         	movs	r0, #0
 8000300: f000 f856    	bl	0x80003b0 <.text+0x3b0> @ imm = #172
 8000304: 9806         	ldr	r0, [sp, #24]
 8000306: 9a04         	ldr	r2, [sp, #16]
 8000308: 9903         	ldr	r1, [sp, #12]
 800030a: 460b         	mov	r3, r1
 800030c: 9301         	str	r3, [sp, #4]
 800030e: 4411         	add	r1, r2
 8000310: 4402         	add	r2, r0
 8000312: 9202         	str	r2, [sp, #8]
 8000314: 4288         	cmp	r0, r1
 8000316: d218         	bhs	0x800034a <.text+0x34a> @ imm = #48
 8000318: e7ff         	b	0x800031a <.text+0x31a> @ imm = #-2
 800031a: 9801         	ldr	r0, [sp, #4]
 800031c: 9902         	ldr	r1, [sp, #8]
 800031e: 4288         	cmp	r0, r1
 8000320: d213         	bhs	0x800034a <.text+0x34a> @ imm = #38
 8000322: e013         	b	0x800034c <.text+0x34c> @ imm = #38
 8000324: e7ee         	b	0x8000304 <.text+0x304> @ imm = #-36
 8000326: f240 0011    	movw	r0, #17
 800032a: f2c2 0000    	movt	r0, #8192
 800032e: f243 03b8    	movw	r3, #12472
 8000332: f6c0 0300    	movt	r3, #2048
 8000336: 2128         	movs	r1, #40
 8000338: 2200         	movs	r2, #0
 800033a: f000 f821    	bl	0x8000380 <.text+0x380> @ imm = #66
 800033e: 9a05         	ldr	r2, [sp, #20]
 8000340: 9901         	ldr	r1, [sp, #4]
 8000342: 9806         	ldr	r0, [sp, #24]
 8000344: f002 fe3e    	bl	0x8002fc4 <.text+0x2fc4> @ imm = #11388
 8000348: e78f         	b	0x800026a <.text+0x26a> @ imm = #-226
 800034a: e7f8         	b	0x800033e <.text+0x33e> @ imm = #-16
 800034c: f240 003a    	movw	r0, #58
 8000350: f2c2 0000    	movt	r0, #8192
 8000354: f243 03b8    	movw	r3, #12472
 8000358: f6c0 0300    	movt	r3, #2048
 800035c: 2117         	movs	r1, #23
 800035e: 2200         	movs	r2, #0
 8000360: f000 f80e    	bl	0x8000380 <.text+0x380> @ imm = #28
 8000364: f7ff ff14    	bl	0x8000190 <.text+0x190> @ imm = #-472
 8000368: f240 0052    	movw	r0, #82
 800036c: f2c2 0000    	movt	r0, #8192
 8000370: f243 03b8    	movw	r3, #12472
 8000374: f6c0 0300    	movt	r3, #2048
 8000378: 211c         	movs	r1, #28
 800037a: 2200         	movs	r2, #0
 800037c: f000 f800    	bl	0x8000380 <.text+0x380> @ imm = #0
 8000380: b083         	sub	sp, #12
 8000382: 9101         	str	r1, [sp, #4]
 8000384: 9000         	str	r0, [sp]
 8000386: 9202         	str	r2, [sp, #8]
 8000388: e7ff         	b	0x800038a <.text+0x38a> @ imm = #-2
 800038a: be00         	bkpt	#0
 800038c: e7fd         	b	0x800038a <.text+0x38a> @ imm = #-6
 800038e: b580         	push	{r7, lr}
 8000390: 466f         	mov	r7, sp
 8000392: b086         	sub	sp, #24
 8000394: 9000         	str	r0, [sp]
 8000396: 9101         	str	r1, [sp, #4]
 8000398: f8cd e008    	str.w	lr, [sp, #8]
 800039c: 2201         	movs	r2, #1
 800039e: f88d 200c    	strb.w	r2, [sp, #12]
 80003a2: 9004         	str	r0, [sp, #16]
 80003a4: 9105         	str	r1, [sp, #20]
 80003a6: 2000         	movs	r0, #0
 80003a8: a902         	add	r1, sp, #8
 80003aa: aa04         	add	r2, sp, #16
 80003ac: f000 f815    	bl	0x80003da <.text+0x3da> @ imm = #42
 80003b0: b580         	push	{r7, lr}
 80003b2: 466f         	mov	r7, sp
 80003b4: b086         	sub	sp, #24
 80003b6: 9000         	str	r0, [sp]
 80003b8: 9101         	str	r1, [sp, #4]
 80003ba: f8cd e008    	str.w	lr, [sp, #8]
 80003be: 2201         	movs	r2, #1
 80003c0: f88d 200c    	strb.w	r2, [sp, #12]
 80003c4: 9004         	str	r0, [sp, #16]
 80003c6: 9105         	str	r1, [sp, #20]
 80003c8: 2000         	movs	r0, #0
 80003ca: a902         	add	r1, sp, #8
 80003cc: aa04         	add	r2, sp, #16
 80003ce: f000 f8b2    	bl	0x8000536 <.text+0x536> @ imm = #356
 80003d2: e7ff         	b	0x80003d4 <.text+0x3d4> @ imm = #-2
 80003d4: e7fe         	b	0x80003d4 <.text+0x3d4> @ imm = #-4
 80003d6: e7ff         	b	0x80003d8 <.text+0x3d8> @ imm = #-2
 80003d8: e7fe         	b	0x80003d8 <.text+0x3d8> @ imm = #-4
 80003da: b5b0         	push	{r4, r5, r7, lr}
 80003dc: af02         	add	r7, sp, #8
 80003de: f5ad 5d87    	sub.w	sp, sp, #4320
 80003e2: b084         	sub	sp, #16
 80003e4: 9206         	str	r2, [sp, #24]
 80003e6: 9107         	str	r1, [sp, #28]
 80003e8: 9008         	str	r0, [sp, #32]
 80003ea: 900c         	str	r0, [sp, #48]
 80003ec: 2020         	movs	r0, #32
 80003ee: 902f         	str	r0, [sp, #188]
 80003f0: a80d         	add	r0, sp, #52
 80003f2: 902e         	str	r0, [sp, #184]
 80003f4: 2000         	movs	r0, #0
 80003f6: 902d         	str	r0, [sp, #180]
 80003f8: 982d         	ldr	r0, [sp, #180]
 80003fa: 9009         	str	r0, [sp, #36]
 80003fc: f240 006f    	movw	r0, #111
 8000400: f2c2 0000    	movt	r0, #8192
 8000404: 9030         	str	r0, [sp, #192]
 8000406: f10d 00c5    	add.w	r0, sp, #197
 800040a: 900a         	str	r0, [sp, #40]
 800040c: f241 010f    	movw	r1, #4111
 8000410: 22aa         	movs	r2, #170
 8000412: f002 fe16    	bl	0x8003042 <.text+0x3042> @ imm = #11308
 8000416: 980a         	ldr	r0, [sp, #40]
 8000418: 900b         	str	r0, [sp, #44]
 800041a: 2001         	movs	r0, #1
 800041c: b978         	cbnz	r0, 0x800043e <.text+0x43e> @ imm = #30
 800041e: e00f         	b	0x8000440 <.text+0x440> @ imm = #30
 8000420: 9a0b         	ldr	r2, [sp, #44]
 8000422: 9806         	ldr	r0, [sp, #24]
 8000424: 4669         	mov	r1, sp
 8000426: 6008         	str	r0, [r1]
 8000428: f1a7 0024    	sub.w	r0, r7, #36
 800042c: a92d         	add	r1, sp, #180
 800042e: f44f 5380    	mov.w	r3, #4096
 8000432: f000 f92e    	bl	0x8000692 <.text+0x692> @ imm = #604
 8000436: f837 0c1c    	ldrh	r0, [r7, #-28]
 800043a: b1c8         	cbz	r0, 0x8000470 <.text+0x470> @ imm = #50
 800043c: e01f         	b	0x800047e <.text+0x47e> @ imm = #62
 800043e: e7ef         	b	0x8000420 <.text+0x420> @ imm = #-34
 8000440: f44f 5080    	mov.w	r0, #4096
 8000444: f241 010f    	movw	r1, #4111
 8000448: f7ff ffb2    	bl	0x80003b0 <.text+0x3b0> @ imm = #-156
 800044c: 9b07         	ldr	r3, [sp, #28]
 800044e: 9a08         	ldr	r2, [sp, #32]
 8000450: 9805         	ldr	r0, [sp, #20]
 8000452: 9904         	ldr	r1, [sp, #16]
 8000454: f847 0c18    	str	r0, [r7, #-24]
 8000458: f847 1c14    	str	r1, [r7, #-20]
 800045c: f847 1c0c    	str	r1, [r7, #-12]
 8000460: f847 0c10    	str	r0, [r7, #-16]
 8000464: f857 0c10    	ldr	r0, [r7, #-16]
 8000468: f857 1c0c    	ldr	r1, [r7, #-12]
 800046c: f7ff ff88    	bl	0x8000380 <.text+0x380> @ imm = #-240
 8000470: f857 1c24    	ldr	r1, [r7, #-36]
 8000474: f857 0c20    	ldr	r0, [r7, #-32]
 8000478: 9105         	str	r1, [sp, #20]
 800047a: 9004         	str	r0, [sp, #16]
 800047c: e7e6         	b	0x800044c <.text+0x44c> @ imm = #-52
 800047e: f837 0c1c    	ldrh	r0, [r7, #-28]
 8000482: 2801         	cmp	r0, #1
 8000484: d00c         	beq	0x80004a0 <.text+0x4a0> @ imm = #24
 8000486: e7ff         	b	0x8000488 <.text+0x488> @ imm = #-2
 8000488: f240 007f    	movw	r0, #127
 800048c: f2c2 0000    	movt	r0, #8192
 8000490: f243 03b8    	movw	r3, #12472
 8000494: f6c0 0300    	movt	r3, #2048
 8000498: 2117         	movs	r1, #23
 800049a: 2200         	movs	r2, #0
 800049c: f7ff ff70    	bl	0x8000380 <.text+0x380> @ imm = #-288
 80004a0: f10d 00c5    	add.w	r0, sp, #197
 80004a4: f500 5080    	add.w	r0, r0, #4096
 80004a8: 9003         	str	r0, [sp, #12]
 80004aa: 2001         	movs	r0, #1
 80004ac: b9a0         	cbnz	r0, 0x80004d8 <.text+0x4d8> @ imm = #40
 80004ae: e014         	b	0x80004da <.text+0x4da> @ imm = #40
 80004b0: 9803         	ldr	r0, [sp, #12]
 80004b2: f100 020f    	add.w	r2, r0, #15
 80004b6: f240 016f    	movw	r1, #111
 80004ba: f2c2 0100    	movt	r1, #8192
 80004be: 310f         	adds	r1, #15
 80004c0: 9202         	str	r2, [sp, #8]
 80004c2: 4288         	cmp	r0, r1
 80004c4: d22a         	bhs	0x800051c <.text+0x51c> @ imm = #84
 80004c6: e7ff         	b	0x80004c8 <.text+0x4c8> @ imm = #-2
 80004c8: 9902         	ldr	r1, [sp, #8]
 80004ca: f240 006f    	movw	r0, #111
 80004ce: f2c2 0000    	movt	r0, #8192
 80004d2: 4288         	cmp	r0, r1
 80004d4: d222         	bhs	0x800051c <.text+0x51c> @ imm = #68
 80004d6: e022         	b	0x800051e <.text+0x51e> @ imm = #68
 80004d8: e7ea         	b	0x80004b0 <.text+0x4b0> @ imm = #-44
 80004da: f241 010f    	movw	r1, #4111
 80004de: 4608         	mov	r0, r1
 80004e0: f7ff ff66    	bl	0x80003b0 <.text+0x3b0> @ imm = #-308
 80004e4: 9809         	ldr	r0, [sp, #36]
 80004e6: 9a03         	ldr	r2, [sp, #12]
 80004e8: f240 0e6f    	movw	lr, #111
 80004ec: f2c2 0e00    	movt	lr, #8192
 80004f0: f8de 1000    	ldr.w	r1, [lr]
 80004f4: f8de 3004    	ldr.w	r3, [lr, #4]
 80004f8: f8de c008    	ldr.w	r12, [lr, #8]
 80004fc: f8de e00b    	ldr.w	lr, [lr, #11]
 8000500: f8c2 e00b    	str.w	lr, [r2, #11]
 8000504: f8c2 c008    	str.w	r12, [r2, #8]
 8000508: 6053         	str	r3, [r2, #4]
 800050a: 6011         	str	r1, [r2]
 800050c: 902d         	str	r0, [sp, #180]
 800050e: f241 000f    	movw	r0, #4111
 8000512: f10d 01c5    	add.w	r1, sp, #197
 8000516: 9105         	str	r1, [sp, #20]
 8000518: 9004         	str	r0, [sp, #16]
 800051a: e797         	b	0x800044c <.text+0x44c> @ imm = #-210
 800051c: e7e2         	b	0x80004e4 <.text+0x4e4> @ imm = #-60
 800051e: f240 003a    	movw	r0, #58
 8000522: f2c2 0000    	movt	r0, #8192
 8000526: f243 03b8    	movw	r3, #12472
 800052a: f6c0 0300    	movt	r3, #2048
 800052e: 2117         	movs	r1, #23
 8000530: 2200         	movs	r2, #0
 8000532: f7ff ff25    	bl	0x8000380 <.text+0x380> @ imm = #-438
 8000536: b5b0         	push	{r4, r5, r7, lr}
 8000538: af02         	add	r7, sp, #8
 800053a: f5ad 5d87    	sub.w	sp, sp, #4320
 800053e: b084         	sub	sp, #16
 8000540: 9206         	str	r2, [sp, #24]
 8000542: 9107         	str	r1, [sp, #28]
 8000544: 9008         	str	r0, [sp, #32]
 8000546: 900c         	str	r0, [sp, #48]
 8000548: 2020         	movs	r0, #32
 800054a: 902f         	str	r0, [sp, #188]
 800054c: a80d         	add	r0, sp, #52
 800054e: 902e         	str	r0, [sp, #184]
 8000550: 2000         	movs	r0, #0
 8000552: 902d         	str	r0, [sp, #180]
 8000554: 982d         	ldr	r0, [sp, #180]
 8000556: 9009         	str	r0, [sp, #36]
 8000558: f240 006f    	movw	r0, #111
 800055c: f2c2 0000    	movt	r0, #8192
 8000560: 9030         	str	r0, [sp, #192]
 8000562: f10d 00c5    	add.w	r0, sp, #197
 8000566: 900a         	str	r0, [sp, #40]
 8000568: f241 010f    	movw	r1, #4111
 800056c: 22aa         	movs	r2, #170
 800056e: f002 fd68    	bl	0x8003042 <.text+0x3042> @ imm = #10960
 8000572: 980a         	ldr	r0, [sp, #40]
 8000574: 900b         	str	r0, [sp, #44]
 8000576: 2001         	movs	r0, #1
 8000578: b978         	cbnz	r0, 0x800059a <.text+0x59a> @ imm = #30
 800057a: e00f         	b	0x800059c <.text+0x59c> @ imm = #30
 800057c: 9a0b         	ldr	r2, [sp, #44]
 800057e: 9806         	ldr	r0, [sp, #24]
 8000580: 4669         	mov	r1, sp
 8000582: 6008         	str	r0, [r1]
 8000584: f1a7 0024    	sub.w	r0, r7, #36
 8000588: a92d         	add	r1, sp, #180
 800058a: f44f 5380    	mov.w	r3, #4096
 800058e: f000 f8dc    	bl	0x800074a <.text+0x74a> @ imm = #440
 8000592: f837 0c1c    	ldrh	r0, [r7, #-28]
 8000596: b1c8         	cbz	r0, 0x80005cc <.text+0x5cc> @ imm = #50
 8000598: e01f         	b	0x80005da <.text+0x5da> @ imm = #62
 800059a: e7ef         	b	0x800057c <.text+0x57c> @ imm = #-34
 800059c: f44f 5080    	mov.w	r0, #4096
 80005a0: f241 010f    	movw	r1, #4111
 80005a4: f7ff ff04    	bl	0x80003b0 <.text+0x3b0> @ imm = #-504
 80005a8: 9b07         	ldr	r3, [sp, #28]
 80005aa: 9a08         	ldr	r2, [sp, #32]
 80005ac: 9805         	ldr	r0, [sp, #20]
 80005ae: 9904         	ldr	r1, [sp, #16]
 80005b0: f847 0c18    	str	r0, [r7, #-24]
 80005b4: f847 1c14    	str	r1, [r7, #-20]
 80005b8: f847 1c0c    	str	r1, [r7, #-12]
 80005bc: f847 0c10    	str	r0, [r7, #-16]
 80005c0: f857 0c10    	ldr	r0, [r7, #-16]
 80005c4: f857 1c0c    	ldr	r1, [r7, #-12]
 80005c8: f7ff feda    	bl	0x8000380 <.text+0x380> @ imm = #-588
 80005cc: f857 1c24    	ldr	r1, [r7, #-36]
 80005d0: f857 0c20    	ldr	r0, [r7, #-32]
 80005d4: 9105         	str	r1, [sp, #20]
 80005d6: 9004         	str	r0, [sp, #16]
 80005d8: e7e6         	b	0x80005a8 <.text+0x5a8> @ imm = #-52
 80005da: f837 0c1c    	ldrh	r0, [r7, #-28]
 80005de: 2801         	cmp	r0, #1
 80005e0: d00c         	beq	0x80005fc <.text+0x5fc> @ imm = #24
 80005e2: e7ff         	b	0x80005e4 <.text+0x5e4> @ imm = #-2
 80005e4: f240 007f    	movw	r0, #127
 80005e8: f2c2 0000    	movt	r0, #8192
 80005ec: f243 03b8    	movw	r3, #12472
 80005f0: f6c0 0300    	movt	r3, #2048
 80005f4: 2117         	movs	r1, #23
 80005f6: 2200         	movs	r2, #0
 80005f8: f7ff fec2    	bl	0x8000380 <.text+0x380> @ imm = #-636
 80005fc: f10d 00c5    	add.w	r0, sp, #197
 8000600: f500 5080    	add.w	r0, r0, #4096
 8000604: 9003         	str	r0, [sp, #12]
 8000606: 2001         	movs	r0, #1
 8000608: b9a0         	cbnz	r0, 0x8000634 <.text+0x634> @ imm = #40
 800060a: e014         	b	0x8000636 <.text+0x636> @ imm = #40
 800060c: 9803         	ldr	r0, [sp, #12]
 800060e: f100 020f    	add.w	r2, r0, #15
 8000612: f240 016f    	movw	r1, #111
 8000616: f2c2 0100    	movt	r1, #8192
 800061a: 310f         	adds	r1, #15
 800061c: 9202         	str	r2, [sp, #8]
 800061e: 4288         	cmp	r0, r1
 8000620: d22a         	bhs	0x8000678 <.text+0x678> @ imm = #84
 8000622: e7ff         	b	0x8000624 <.text+0x624> @ imm = #-2
 8000624: 9902         	ldr	r1, [sp, #8]
 8000626: f240 006f    	movw	r0, #111
 800062a: f2c2 0000    	movt	r0, #8192
 800062e: 4288         	cmp	r0, r1
 8000630: d222         	bhs	0x8000678 <.text+0x678> @ imm = #68
 8000632: e022         	b	0x800067a <.text+0x67a> @ imm = #68
 8000634: e7ea         	b	0x800060c <.text+0x60c> @ imm = #-44
 8000636: f241 010f    	movw	r1, #4111
 800063a: 4608         	mov	r0, r1
 800063c: f7ff feb8    	bl	0x80003b0 <.text+0x3b0> @ imm = #-656
 8000640: 9809         	ldr	r0, [sp, #36]
 8000642: 9a03         	ldr	r2, [sp, #12]
 8000644: f240 0e6f    	movw	lr, #111
 8000648: f2c2 0e00    	movt	lr, #8192
 800064c: f8de 1000    	ldr.w	r1, [lr]
 8000650: f8de 3004    	ldr.w	r3, [lr, #4]
 8000654: f8de c008    	ldr.w	r12, [lr, #8]
 8000658: f8de e00b    	ldr.w	lr, [lr, #11]
 800065c: f8c2 e00b    	str.w	lr, [r2, #11]
 8000660: f8c2 c008    	str.w	r12, [r2, #8]
 8000664: 6053         	str	r3, [r2, #4]
 8000666: 6011         	str	r1, [r2]
 8000668: 902d         	str	r0, [sp, #180]
 800066a: f241 000f    	movw	r0, #4111
 800066e: f10d 01c5    	add.w	r1, sp, #197
 8000672: 9105         	str	r1, [sp, #20]
 8000674: 9004         	str	r0, [sp, #16]
 8000676: e797         	b	0x80005a8 <.text+0x5a8> @ imm = #-210
 8000678: e7e2         	b	0x8000640 <.text+0x640> @ imm = #-60
 800067a: f240 003a    	movw	r0, #58
 800067e: f2c2 0000    	movt	r0, #8192
 8000682: f243 03b8    	movw	r3, #12472
 8000686: f6c0 0300    	movt	r3, #2048
 800068a: 2117         	movs	r1, #23
 800068c: 2200         	movs	r2, #0
 800068e: f7ff fe77    	bl	0x8000380 <.text+0x380> @ imm = #-786
 8000692: b580         	push	{r7, lr}
 8000694: 466f         	mov	r7, sp
 8000696: b098         	sub	sp, #96
 8000698: 9301         	str	r3, [sp, #4]
 800069a: 4613         	mov	r3, r2
 800069c: 9a01         	ldr	r2, [sp, #4]
 800069e: 9302         	str	r3, [sp, #8]
 80006a0: 460b         	mov	r3, r1
 80006a2: 9902         	ldr	r1, [sp, #8]
 80006a4: 9303         	str	r3, [sp, #12]
 80006a6: 9004         	str	r0, [sp, #16]
 80006a8: 68b8         	ldr	r0, [r7, #8]
 80006aa: 9005         	str	r0, [sp, #20]
 80006ac: 9208         	str	r2, [sp, #32]
 80006ae: 9107         	str	r1, [sp, #28]
 80006b0: a80c         	add	r0, sp, #48
 80006b2: f000 fa15    	bl	0x8000ae0 <.text+0xae0> @ imm = #1066
 80006b6: 980c         	ldr	r0, [sp, #48]
 80006b8: 990d         	ldr	r1, [sp, #52]
 80006ba: 9a0e         	ldr	r2, [sp, #56]
 80006bc: 920b         	str	r2, [sp, #44]
 80006be: 910a         	str	r1, [sp, #40]
 80006c0: 9009         	str	r0, [sp, #36]
 80006c2: a80f         	add	r0, sp, #60
 80006c4: a909         	add	r1, sp, #36
 80006c6: f000 fa17    	bl	0x8000af8 <.text+0xaf8> @ imm = #1070
 80006ca: 980f         	ldr	r0, [sp, #60]
 80006cc: 9010         	str	r0, [sp, #64]
 80006ce: a810         	add	r0, sp, #64
 80006d0: 9011         	str	r0, [sp, #68]
 80006d2: 9014         	str	r0, [sp, #80]
 80006d4: 9814         	ldr	r0, [sp, #80]
 80006d6: 9012         	str	r0, [sp, #72]
 80006d8: f640 3003    	movw	r0, #2819
 80006dc: f6c0 0000    	movt	r0, #2048
 80006e0: 9013         	str	r0, [sp, #76]
 80006e2: a812         	add	r0, sp, #72
 80006e4: 9006         	str	r0, [sp, #24]
 80006e6: e7ff         	b	0x80006e8 <.text+0x6e8> @ imm = #-2
 80006e8: 9a05         	ldr	r2, [sp, #20]
 80006ea: 9803         	ldr	r0, [sp, #12]
 80006ec: 9906         	ldr	r1, [sp, #24]
 80006ee: f000 f888    	bl	0x8000802 <.text+0x802> @ imm = #272
 80006f2: 4601         	mov	r1, r0
 80006f4: 9100         	str	r1, [sp]
 80006f6: 0400         	lsls	r0, r0, #16
 80006f8: b190         	cbz	r0, 0x8000720 <.text+0x720> @ imm = #36
 80006fa: e012         	b	0x8000722 <.text+0x722> @ imm = #36
 80006fc: a809         	add	r0, sp, #36
 80006fe: f000 fa5b    	bl	0x8000bb8 <.text+0xbb8> @ imm = #1206
 8000702: 460a         	mov	r2, r1
 8000704: 9904         	ldr	r1, [sp, #16]
 8000706: 2300         	movs	r3, #0
 8000708: f8ad 305c    	strh.w	r3, [sp, #92]
 800070c: 9216         	str	r2, [sp, #88]
 800070e: 9015         	str	r0, [sp, #84]
 8000710: 9815         	ldr	r0, [sp, #84]
 8000712: 9a16         	ldr	r2, [sp, #88]
 8000714: 9b17         	ldr	r3, [sp, #92]
 8000716: 608b         	str	r3, [r1, #8]
 8000718: 604a         	str	r2, [r1, #4]
 800071a: 6008         	str	r0, [r1]
 800071c: b018         	add	sp, #96
 800071e: bd80         	pop	{r7, pc}
 8000720: e7ec         	b	0x80006fc <.text+0x6fc> @ imm = #-40
 8000722: 9800         	ldr	r0, [sp]
 8000724: b280         	uxth	r0, r0
 8000726: 2801         	cmp	r0, #1
 8000728: d004         	beq	0x8000734 <.text+0x734> @ imm = #8
 800072a: e7ff         	b	0x800072c <.text+0x72c> @ imm = #-2
 800072c: 9900         	ldr	r1, [sp]
 800072e: 9803         	ldr	r0, [sp, #12]
 8000730: f000 fa25    	bl	0x8000b7e <.text+0xb7e> @ imm = #1098
 8000734: 9803         	ldr	r0, [sp, #12]
 8000736: f000 f95a    	bl	0x80009ee <.text+0x9ee> @ imm = #692
 800073a: 9904         	ldr	r1, [sp, #16]
 800073c: 2001         	movs	r0, #1
 800073e: 6088         	str	r0, [r1, #8]
 8000740: 2000         	movs	r0, #0
 8000742: 6048         	str	r0, [r1, #4]
 8000744: 6008         	str	r0, [r1]
 8000746: b018         	add	sp, #96
 8000748: bd80         	pop	{r7, pc}
 800074a: b580         	push	{r7, lr}
 800074c: 466f         	mov	r7, sp
 800074e: b098         	sub	sp, #96
 8000750: 9301         	str	r3, [sp, #4]
 8000752: 4613         	mov	r3, r2
 8000754: 9a01         	ldr	r2, [sp, #4]
 8000756: 9302         	str	r3, [sp, #8]
 8000758: 460b         	mov	r3, r1
 800075a: 9902         	ldr	r1, [sp, #8]
 800075c: 9303         	str	r3, [sp, #12]
 800075e: 9004         	str	r0, [sp, #16]
 8000760: 68b8         	ldr	r0, [r7, #8]
 8000762: 9005         	str	r0, [sp, #20]
 8000764: 9208         	str	r2, [sp, #32]
 8000766: 9107         	str	r1, [sp, #28]
 8000768: a80c         	add	r0, sp, #48
 800076a: f000 f9b9    	bl	0x8000ae0 <.text+0xae0> @ imm = #882
 800076e: 980c         	ldr	r0, [sp, #48]
 8000770: 990d         	ldr	r1, [sp, #52]
 8000772: 9a0e         	ldr	r2, [sp, #56]
 8000774: 920b         	str	r2, [sp, #44]
 8000776: 910a         	str	r1, [sp, #40]
 8000778: 9009         	str	r0, [sp, #36]
 800077a: a80f         	add	r0, sp, #60
 800077c: a909         	add	r1, sp, #36
 800077e: f000 f9bb    	bl	0x8000af8 <.text+0xaf8> @ imm = #886
 8000782: 980f         	ldr	r0, [sp, #60]
 8000784: 9010         	str	r0, [sp, #64]
 8000786: a810         	add	r0, sp, #64
 8000788: 9011         	str	r0, [sp, #68]
 800078a: 9014         	str	r0, [sp, #80]
 800078c: 9814         	ldr	r0, [sp, #80]
 800078e: 9012         	str	r0, [sp, #72]
 8000790: f640 3003    	movw	r0, #2819
 8000794: f6c0 0000    	movt	r0, #2048
 8000798: 9013         	str	r0, [sp, #76]
 800079a: a812         	add	r0, sp, #72
 800079c: 9006         	str	r0, [sp, #24]
 800079e: e7ff         	b	0x80007a0 <.text+0x7a0> @ imm = #-2
 80007a0: 9a05         	ldr	r2, [sp, #20]
 80007a2: 9803         	ldr	r0, [sp, #12]
 80007a4: 9906         	ldr	r1, [sp, #24]
 80007a6: f000 fa37    	bl	0x8000c18 <.text+0xc18> @ imm = #1134
 80007aa: 4601         	mov	r1, r0
 80007ac: 9100         	str	r1, [sp]
 80007ae: 0400         	lsls	r0, r0, #16
 80007b0: b190         	cbz	r0, 0x80007d8 <.text+0x7d8> @ imm = #36
 80007b2: e012         	b	0x80007da <.text+0x7da> @ imm = #36
 80007b4: a809         	add	r0, sp, #36
 80007b6: f000 f9ff    	bl	0x8000bb8 <.text+0xbb8> @ imm = #1022
 80007ba: 460a         	mov	r2, r1
 80007bc: 9904         	ldr	r1, [sp, #16]
 80007be: 2300         	movs	r3, #0
 80007c0: f8ad 305c    	strh.w	r3, [sp, #92]
 80007c4: 9216         	str	r2, [sp, #88]
 80007c6: 9015         	str	r0, [sp, #84]
 80007c8: 9815         	ldr	r0, [sp, #84]
 80007ca: 9a16         	ldr	r2, [sp, #88]
 80007cc: 9b17         	ldr	r3, [sp, #92]
 80007ce: 608b         	str	r3, [r1, #8]
 80007d0: 604a         	str	r2, [r1, #4]
 80007d2: 6008         	str	r0, [r1]
 80007d4: b018         	add	sp, #96
 80007d6: bd80         	pop	{r7, pc}
 80007d8: e7ec         	b	0x80007b4 <.text+0x7b4> @ imm = #-40
 80007da: 9800         	ldr	r0, [sp]
 80007dc: b280         	uxth	r0, r0
 80007de: 2801         	cmp	r0, #1
 80007e0: d004         	beq	0x80007ec <.text+0x7ec> @ imm = #8
 80007e2: e7ff         	b	0x80007e4 <.text+0x7e4> @ imm = #-2
 80007e4: 9900         	ldr	r1, [sp]
 80007e6: 9803         	ldr	r0, [sp, #12]
 80007e8: f000 f9c9    	bl	0x8000b7e <.text+0xb7e> @ imm = #914
 80007ec: 9803         	ldr	r0, [sp, #12]
 80007ee: f000 f8fe    	bl	0x80009ee <.text+0x9ee> @ imm = #508
 80007f2: 9904         	ldr	r1, [sp, #16]
 80007f4: 2001         	movs	r0, #1
 80007f6: 6088         	str	r0, [r1, #8]
 80007f8: 2000         	movs	r0, #0
 80007fa: 6048         	str	r0, [r1, #4]
 80007fc: 6008         	str	r0, [r1]
 80007fe: b018         	add	sp, #96
 8000800: bd80         	pop	{r7, pc}
 8000802: b580         	push	{r7, lr}
 8000804: 466f         	mov	r7, sp
 8000806: b08e         	sub	sp, #56
 8000808: 9204         	str	r2, [sp, #16]
 800080a: 460a         	mov	r2, r1
 800080c: 9205         	str	r2, [sp, #20]
 800080e: 9006         	str	r0, [sp, #24]
 8000810: 6811         	ldr	r1, [r2]
 8000812: 6852         	ldr	r2, [r2, #4]
 8000814: 9209         	str	r2, [sp, #36]
 8000816: 9108         	str	r1, [sp, #32]
 8000818: f240 0297    	movw	r2, #151
 800081c: f2c2 0200    	movt	r2, #8192
 8000820: a908         	add	r1, sp, #32
 8000822: 230c         	movs	r3, #12
 8000824: f000 f861    	bl	0x80008ea <.text+0x8ea> @ imm = #194
 8000828: 4601         	mov	r1, r0
 800082a: 9107         	str	r1, [sp, #28]
 800082c: 0400         	lsls	r0, r0, #16
 800082e: b9a8         	cbnz	r0, 0x800085c <.text+0x85c> @ imm = #42
 8000830: e01a         	b	0x8000868 <.text+0x868> @ imm = #52
 8000832: 9806         	ldr	r0, [sp, #24]
 8000834: 9a05         	ldr	r2, [sp, #20]
 8000836: 6811         	ldr	r1, [r2]
 8000838: 6852         	ldr	r2, [r2, #4]
 800083a: 920c         	str	r2, [sp, #48]
 800083c: 910b         	str	r1, [sp, #44]
 800083e: f240 0197    	movw	r1, #151
 8000842: f2c2 0100    	movt	r1, #8192
 8000846: f101 020f    	add.w	r2, r1, #15
 800084a: a90b         	add	r1, sp, #44
 800084c: 231a         	movs	r3, #26
 800084e: f000 f84c    	bl	0x80008ea <.text+0x8ea> @ imm = #152
 8000852: 4601         	mov	r1, r0
 8000854: 9103         	str	r1, [sp, #12]
 8000856: 0400         	lsls	r0, r0, #16
 8000858: bb28         	cbnz	r0, 0x80008a6 <.text+0x8a6> @ imm = #74
 800085a: e02a         	b	0x80008b2 <.text+0x8b2> @ imm = #84
 800085c: 9806         	ldr	r0, [sp, #24]
 800085e: f000 f8c6    	bl	0x80009ee <.text+0x9ee> @ imm = #396
 8000862: 9807         	ldr	r0, [sp, #28]
 8000864: b00e         	add	sp, #56
 8000866: bd80         	pop	{r7, pc}
 8000868: 9b05         	ldr	r3, [sp, #20]
 800086a: 9806         	ldr	r0, [sp, #24]
 800086c: 9904         	ldr	r1, [sp, #16]
 800086e: 2200         	movs	r2, #0
 8000870: 920a         	str	r2, [sp, #40]
 8000872: 6809         	ldr	r1, [r1]
 8000874: 46ec         	mov	r12, sp
 8000876: 2203         	movs	r2, #3
 8000878: f8cc 2000    	str.w	r2, [r12]
 800087c: f243 02d4    	movw	r2, #12500
 8000880: f6c0 0200    	movt	r2, #2048
 8000884: f000 f8fd    	bl	0x8000a82 <.text+0xa82> @ imm = #506
 8000888: 4601         	mov	r1, r0
 800088a: 9102         	str	r1, [sp, #8]
 800088c: 0400         	lsls	r0, r0, #16
 800088e: b130         	cbz	r0, 0x800089e <.text+0x89e> @ imm = #12
 8000890: e7ff         	b	0x8000892 <.text+0x892> @ imm = #-2
 8000892: 9806         	ldr	r0, [sp, #24]
 8000894: f000 f8ab    	bl	0x80009ee <.text+0x9ee> @ imm = #342
 8000898: 9802         	ldr	r0, [sp, #8]
 800089a: b00e         	add	sp, #56
 800089c: bd80         	pop	{r7, pc}
 800089e: e7c8         	b	0x8000832 <.text+0x832> @ imm = #-112
 80008a0: 2000         	movs	r0, #0
 80008a2: b00e         	add	sp, #56
 80008a4: bd80         	pop	{r7, pc}
 80008a6: 9806         	ldr	r0, [sp, #24]
 80008a8: f000 f8a1    	bl	0x80009ee <.text+0x9ee> @ imm = #322
 80008ac: 9803         	ldr	r0, [sp, #12]
 80008ae: b00e         	add	sp, #56
 80008b0: bd80         	pop	{r7, pc}
 80008b2: 9b05         	ldr	r3, [sp, #20]
 80008b4: 9806         	ldr	r0, [sp, #24]
 80008b6: 9904         	ldr	r1, [sp, #16]
 80008b8: 2201         	movs	r2, #1
 80008ba: 920d         	str	r2, [sp, #52]
 80008bc: 6849         	ldr	r1, [r1, #4]
 80008be: 46ec         	mov	r12, sp
 80008c0: 2203         	movs	r2, #3
 80008c2: f8cc 2000    	str.w	r2, [r12]
 80008c6: f243 02d4    	movw	r2, #12500
 80008ca: f6c0 0200    	movt	r2, #2048
 80008ce: f000 f8d8    	bl	0x8000a82 <.text+0xa82> @ imm = #432
 80008d2: 4601         	mov	r1, r0
 80008d4: 9101         	str	r1, [sp, #4]
 80008d6: 0400         	lsls	r0, r0, #16
 80008d8: b130         	cbz	r0, 0x80008e8 <.text+0x8e8> @ imm = #12
 80008da: e7ff         	b	0x80008dc <.text+0x8dc> @ imm = #-2
 80008dc: 9806         	ldr	r0, [sp, #24]
 80008de: f000 f886    	bl	0x80009ee <.text+0x9ee> @ imm = #268
 80008e2: 9801         	ldr	r0, [sp, #4]
 80008e4: b00e         	add	sp, #56
 80008e6: bd80         	pop	{r7, pc}
 80008e8: e7da         	b	0x80008a0 <.text+0x8a0> @ imm = #-76
 80008ea: b580         	push	{r7, lr}
 80008ec: 466f         	mov	r7, sp
 80008ee: b09a         	sub	sp, #104
 80008f0: 910b         	str	r1, [sp, #44]
 80008f2: 900c         	str	r0, [sp, #48]
 80008f4: 4618         	mov	r0, r3
 80008f6: 900d         	str	r0, [sp, #52]
 80008f8: 4610         	mov	r0, r2
 80008fa: 900e         	str	r0, [sp, #56]
 80008fc: 9310         	str	r3, [sp, #64]
 80008fe: 920f         	str	r2, [sp, #60]
 8000900: 2000         	movs	r0, #0
 8000902: 9011         	str	r0, [sp, #68]
 8000904: e002         	b	0x800090c <.text+0x90c> @ imm = #4
 8000906: 2000         	movs	r0, #0
 8000908: b01a         	add	sp, #104
 800090a: bd80         	pop	{r7, pc}
 800090c: 990d         	ldr	r1, [sp, #52]
 800090e: 9811         	ldr	r0, [sp, #68]
 8000910: 4288         	cmp	r0, r1
 8000912: d101         	bne	0x8000918 <.text+0x918> @ imm = #2
 8000914: e01b         	b	0x800094e <.text+0x94e> @ imm = #54
 8000916: e7f9         	b	0x800090c <.text+0x90c> @ imm = #-14
 8000918: 980e         	ldr	r0, [sp, #56]
 800091a: 990d         	ldr	r1, [sp, #52]
 800091c: 9b0b         	ldr	r3, [sp, #44]
 800091e: 9a11         	ldr	r2, [sp, #68]
 8000920: 9206         	str	r2, [sp, #24]
 8000922: 681a         	ldr	r2, [r3]
 8000924: 685b         	ldr	r3, [r3, #4]
 8000926: 9313         	str	r3, [sp, #76]
 8000928: 9212         	str	r2, [sp, #72]
 800092a: 9a12         	ldr	r2, [sp, #72]
 800092c: 9b13         	ldr	r3, [sp, #76]
 800092e: 9315         	str	r3, [sp, #84]
 8000930: 9214         	str	r2, [sp, #80]
 8000932: 9117         	str	r1, [sp, #92]
 8000934: 9016         	str	r0, [sp, #88]
 8000936: 9811         	ldr	r0, [sp, #68]
 8000938: 9007         	str	r0, [sp, #28]
 800093a: 9a16         	ldr	r2, [sp, #88]
 800093c: 9917         	ldr	r1, [sp, #92]
 800093e: 9108         	str	r1, [sp, #32]
 8000940: 4402         	add	r2, r0
 8000942: 9209         	str	r2, [sp, #36]
 8000944: 460a         	mov	r2, r1
 8000946: 920a         	str	r2, [sp, #40]
 8000948: 4288         	cmp	r0, r1
 800094a: d90b         	bls	0x8000964 <.text+0x964> @ imm = #22
 800094c: e00b         	b	0x8000966 <.text+0x966> @ imm = #22
 800094e: e7da         	b	0x8000906 <.text+0x906> @ imm = #-76
 8000950: 980a         	ldr	r0, [sp, #40]
 8000952: 9908         	ldr	r1, [sp, #32]
 8000954: 9a07         	ldr	r2, [sp, #28]
 8000956: 1a82         	subs	r2, r0, r2
 8000958: 9204         	str	r2, [sp, #16]
 800095a: 460a         	mov	r2, r1
 800095c: 9205         	str	r2, [sp, #20]
 800095e: 4288         	cmp	r0, r1
 8000960: d90a         	bls	0x8000978 <.text+0x978> @ imm = #20
 8000962: e00a         	b	0x800097a <.text+0x97a> @ imm = #20
 8000964: e7f4         	b	0x8000950 <.text+0x950> @ imm = #-24
 8000966: 990a         	ldr	r1, [sp, #40]
 8000968: 9807         	ldr	r0, [sp, #28]
 800096a: f7ff fd10    	bl	0x800038e <.text+0x38e> @ imm = #-1504
 800096e: 9807         	ldr	r0, [sp, #28]
 8000970: 990a         	ldr	r1, [sp, #40]
 8000972: 4288         	cmp	r0, r1
 8000974: d912         	bls	0x800099c <.text+0x99c> @ imm = #36
 8000976: e012         	b	0x800099e <.text+0x99e> @ imm = #36
 8000978: e7f9         	b	0x800096e <.text+0x96e> @ imm = #-14
 800097a: 9905         	ldr	r1, [sp, #20]
 800097c: 980a         	ldr	r0, [sp, #40]
 800097e: f7ff fd17    	bl	0x80003b0 <.text+0x3b0> @ imm = #-1490
 8000982: 9b09         	ldr	r3, [sp, #36]
 8000984: 990c         	ldr	r1, [sp, #48]
 8000986: 9804         	ldr	r0, [sp, #16]
 8000988: 466a         	mov	r2, sp
 800098a: 6010         	str	r0, [r2]
 800098c: a818         	add	r0, sp, #96
 800098e: aa14         	add	r2, sp, #80
 8000990: f000 fabb    	bl	0x8000f0a <.text+0xf0a> @ imm = #1398
 8000994: f8bd 0064    	ldrh.w	r0, [sp, #100]
 8000998: b928         	cbnz	r0, 0x80009a6 <.text+0x9a6> @ imm = #10
 800099a: e00d         	b	0x80009b8 <.text+0x9b8> @ imm = #26
 800099c: e7f1         	b	0x8000982 <.text+0x982> @ imm = #-30
 800099e: 990a         	ldr	r1, [sp, #40]
 80009a0: 9807         	ldr	r0, [sp, #28]
 80009a2: f7ff fd05    	bl	0x80003b0 <.text+0x3b0> @ imm = #-1526
 80009a6: 980c         	ldr	r0, [sp, #48]
 80009a8: f8bd 1064    	ldrh.w	r1, [sp, #100]
 80009ac: 9103         	str	r1, [sp, #12]
 80009ae: f000 f81e    	bl	0x80009ee <.text+0x9ee> @ imm = #60
 80009b2: 9803         	ldr	r0, [sp, #12]
 80009b4: b01a         	add	sp, #104
 80009b6: bd80         	pop	{r7, pc}
 80009b8: 9906         	ldr	r1, [sp, #24]
 80009ba: 9818         	ldr	r0, [sp, #96]
 80009bc: 1840         	adds	r0, r0, r1
 80009be: f04f 0200    	mov.w	r2, #0
 80009c2: f142 0200    	adc	r2, r2, #0
 80009c6: 4603         	mov	r3, r0
 80009c8: 9302         	str	r3, [sp, #8]
 80009ca: 4288         	cmp	r0, r1
 80009cc: d20c         	bhs	0x80009e8 <.text+0x9e8> @ imm = #24
 80009ce: e7ff         	b	0x80009d0 <.text+0x9d0> @ imm = #-2
 80009d0: f240 0000    	movw	r0, #0
 80009d4: f2c2 0000    	movt	r0, #8192
 80009d8: f243 03b8    	movw	r3, #12472
 80009dc: f6c0 0300    	movt	r3, #2048
 80009e0: 2110         	movs	r1, #16
 80009e2: 2200         	movs	r2, #0
 80009e4: f7ff fccc    	bl	0x8000380 <.text+0x380> @ imm = #-1640
 80009e8: 9802         	ldr	r0, [sp, #8]
 80009ea: 9011         	str	r0, [sp, #68]
 80009ec: e793         	b	0x8000916 <.text+0x916> @ imm = #-218
 80009ee: b580         	push	{r7, lr}
 80009f0: 466f         	mov	r7, sp
 80009f2: b08c         	sub	sp, #48
 80009f4: 4601         	mov	r1, r0
 80009f6: 9105         	str	r1, [sp, #20]
 80009f8: 9107         	str	r1, [sp, #28]
 80009fa: 4670         	mov	r0, lr
 80009fc: 9006         	str	r0, [sp, #24]
 80009fe: 9108         	str	r1, [sp, #32]
 8000a00: f8cd e024    	str.w	lr, [sp, #36]
 8000a04: 6808         	ldr	r0, [r1]
 8000a06: 6889         	ldr	r1, [r1, #8]
 8000a08: 4288         	cmp	r0, r1
 8000a0a: d311         	blo	0x8000a30 <.text+0xa30> @ imm = #34
 8000a0c: e01d         	b	0x8000a4a <.text+0xa4a> @ imm = #58
 8000a0e: b00c         	add	sp, #48
 8000a10: bd80         	pop	{r7, pc}
 8000a12: 9805         	ldr	r0, [sp, #20]
 8000a14: 900b         	str	r0, [sp, #44]
 8000a16: 980b         	ldr	r0, [sp, #44]
 8000a18: 9003         	str	r0, [sp, #12]
 8000a1a: 6801         	ldr	r1, [r0]
 8000a1c: 1c48         	adds	r0, r1, #1
 8000a1e: f04f 0200    	mov.w	r2, #0
 8000a22: f142 0200    	adc	r2, r2, #0
 8000a26: 4603         	mov	r3, r0
 8000a28: 9304         	str	r3, [sp, #16]
 8000a2a: 4288         	cmp	r0, r1
 8000a2c: d319         	blo	0x8000a62 <.text+0xa62> @ imm = #50
 8000a2e: e024         	b	0x8000a7a <.text+0xa7a> @ imm = #72
 8000a30: 9805         	ldr	r0, [sp, #20]
 8000a32: 900a         	str	r0, [sp, #40]
 8000a34: 990a         	ldr	r1, [sp, #40]
 8000a36: 6800         	ldr	r0, [r0]
 8000a38: 9000         	str	r0, [sp]
 8000a3a: 684a         	ldr	r2, [r1, #4]
 8000a3c: 9201         	str	r2, [sp, #4]
 8000a3e: 6889         	ldr	r1, [r1, #8]
 8000a40: 460a         	mov	r2, r1
 8000a42: 9202         	str	r2, [sp, #8]
 8000a44: 4288         	cmp	r0, r1
 8000a46: d307         	blo	0x8000a58 <.text+0xa58> @ imm = #14
 8000a48: e007         	b	0x8000a5a <.text+0xa5a> @ imm = #14
 8000a4a: e7e2         	b	0x8000a12 <.text+0xa12> @ imm = #-60
 8000a4c: 9806         	ldr	r0, [sp, #24]
 8000a4e: 9901         	ldr	r1, [sp, #4]
 8000a50: 9a00         	ldr	r2, [sp]
 8000a52: f841 0022    	str.w	r0, [r1, r2, lsl #2]
 8000a56: e7dc         	b	0x8000a12 <.text+0xa12> @ imm = #-72
 8000a58: e7f8         	b	0x8000a4c <.text+0xa4c> @ imm = #-16
 8000a5a: 9902         	ldr	r1, [sp, #8]
 8000a5c: 9800         	ldr	r0, [sp]
 8000a5e: f7ff fca7    	bl	0x80003b0 <.text+0x3b0> @ imm = #-1714
 8000a62: f240 0000    	movw	r0, #0
 8000a66: f2c2 0000    	movt	r0, #8192
 8000a6a: f243 03b8    	movw	r3, #12472
 8000a6e: f6c0 0300    	movt	r3, #2048
 8000a72: 2110         	movs	r1, #16
 8000a74: 2200         	movs	r2, #0
 8000a76: f7ff fc83    	bl	0x8000380 <.text+0x380> @ imm = #-1786
 8000a7a: 9804         	ldr	r0, [sp, #16]
 8000a7c: 9903         	ldr	r1, [sp, #12]
 8000a7e: 6008         	str	r0, [r1]
 8000a80: e7c5         	b	0x8000a0e <.text+0xa0e> @ imm = #-118
 8000a82: b580         	push	{r7, lr}
 8000a84: 466f         	mov	r7, sp
 8000a86: b08c         	sub	sp, #48
 8000a88: 9301         	str	r3, [sp, #4]
 8000a8a: 9202         	str	r2, [sp, #8]
 8000a8c: 9103         	str	r1, [sp, #12]
 8000a8e: 9004         	str	r0, [sp, #16]
 8000a90: 68b8         	ldr	r0, [r7, #8]
 8000a92: 9105         	str	r1, [sp, #20]
 8000a94: 2001         	movs	r0, #1
 8000a96: 9007         	str	r0, [sp, #28]
 8000a98: f240 00c4    	movw	r0, #196
 8000a9c: f2c2 0000    	movt	r0, #8192
 8000aa0: 9006         	str	r0, [sp, #24]
 8000aa2: 2106         	movs	r1, #6
 8000aa4: 9109         	str	r1, [sp, #36]
 8000aa6: f240 1001    	movw	r0, #257
 8000aaa: f2c2 0000    	movt	r0, #8192
 8000aae: 9008         	str	r0, [sp, #32]
 8000ab0: 910b         	str	r1, [sp, #44]
 8000ab2: 900a         	str	r0, [sp, #40]
 8000ab4: e00a         	b	0x8000acc <.text+0xacc> @ imm = #20
 8000ab6: 9b01         	ldr	r3, [sp, #4]
 8000ab8: 9a02         	ldr	r2, [sp, #8]
 8000aba: 9903         	ldr	r1, [sp, #12]
 8000abc: 9804         	ldr	r0, [sp, #16]
 8000abe: f000 fa51    	bl	0x8000f64 <.text+0xf64> @ imm = #1186
 8000ac2: 4601         	mov	r1, r0
 8000ac4: 9100         	str	r1, [sp]
 8000ac6: 0400         	lsls	r0, r0, #16
 8000ac8: b108         	cbz	r0, 0x8000ace <.text+0xace> @ imm = #2
 8000aca: e003         	b	0x8000ad4 <.text+0xad4> @ imm = #6
 8000acc: e7f3         	b	0x8000ab6 <.text+0xab6> @ imm = #-26
 8000ace: 9800         	ldr	r0, [sp]
 8000ad0: b00c         	add	sp, #48
 8000ad2: bd80         	pop	{r7, pc}
 8000ad4: 9804         	ldr	r0, [sp, #16]
 8000ad6: f7ff ff8a    	bl	0x80009ee <.text+0x9ee> @ imm = #-236
 8000ada: 9800         	ldr	r0, [sp]
 8000adc: b00c         	add	sp, #48
 8000ade: bd80         	pop	{r7, pc}
 8000ae0: b083         	sub	sp, #12
 8000ae2: 9100         	str	r1, [sp]
 8000ae4: 4601         	mov	r1, r0
 8000ae6: 9800         	ldr	r0, [sp]
 8000ae8: 9202         	str	r2, [sp, #8]
 8000aea: 9001         	str	r0, [sp, #4]
 8000aec: 604a         	str	r2, [r1, #4]
 8000aee: 6008         	str	r0, [r1]
 8000af0: 2000         	movs	r0, #0
 8000af2: 6088         	str	r0, [r1, #8]
 8000af4: b003         	add	sp, #12
 8000af6: 4770         	bx	lr
 8000af8: b081         	sub	sp, #4
 8000afa: 9100         	str	r1, [sp]
 8000afc: 6001         	str	r1, [r0]
 8000afe: b001         	add	sp, #4
 8000b00: 4770         	bx	lr
 8000b02: b580         	push	{r7, lr}
 8000b04: 466f         	mov	r7, sp
 8000b06: b08c         	sub	sp, #48
 8000b08: 9201         	str	r2, [sp, #4]
 8000b0a: 9102         	str	r1, [sp, #8]
 8000b0c: 9003         	str	r0, [sp, #12]
 8000b0e: 68b8         	ldr	r0, [r7, #8]
 8000b10: 9004         	str	r0, [sp, #16]
 8000b12: 4619         	mov	r1, r3
 8000b14: 9105         	str	r1, [sp, #20]
 8000b16: 9206         	str	r2, [sp, #24]
 8000b18: 9008         	str	r0, [sp, #32]
 8000b1a: 9307         	str	r3, [sp, #28]
 8000b1c: 0790         	lsls	r0, r2, #30
 8000b1e: b180         	cbz	r0, 0x8000b42 <.text+0xb42> @ imm = #32
 8000b20: e010         	b	0x8000b44 <.text+0xb44> @ imm = #32
 8000b22: 9b05         	ldr	r3, [sp, #20]
 8000b24: 9902         	ldr	r1, [sp, #8]
 8000b26: 9804         	ldr	r0, [sp, #16]
 8000b28: 9a01         	ldr	r2, [sp, #4]
 8000b2a: 9209         	str	r2, [sp, #36]
 8000b2c: 6812         	ldr	r2, [r2]
 8000b2e: 46ec         	mov	r12, sp
 8000b30: f8cc 0000    	str.w	r0, [r12]
 8000b34: a80a         	add	r0, sp, #40
 8000b36: f000 f8e3    	bl	0x8000d00 <.text+0xd00> @ imm = #454
 8000b3a: f8bd 002c    	ldrh.w	r0, [sp, #44]
 8000b3e: b168         	cbz	r0, 0x8000b5c <.text+0xb5c> @ imm = #26
 8000b40: e013         	b	0x8000b6a <.text+0xb6a> @ imm = #38
 8000b42: e7ee         	b	0x8000b22 <.text+0xb22> @ imm = #-36
 8000b44: f240 00ed    	movw	r0, #237
 8000b48: f2c2 0000    	movt	r0, #8192
 8000b4c: f243 03b8    	movw	r3, #12472
 8000b50: f6c0 0300    	movt	r3, #2048
 8000b54: 2113         	movs	r1, #19
 8000b56: 2200         	movs	r2, #0
 8000b58: f7ff fc12    	bl	0x8000380 <.text+0x380> @ imm = #-2012
 8000b5c: 9903         	ldr	r1, [sp, #12]
 8000b5e: 980a         	ldr	r0, [sp, #40]
 8000b60: 9a0b         	ldr	r2, [sp, #44]
 8000b62: 604a         	str	r2, [r1, #4]
 8000b64: 6008         	str	r0, [r1]
 8000b66: b00c         	add	sp, #48
 8000b68: bd80         	pop	{r7, pc}
 8000b6a: 9802         	ldr	r0, [sp, #8]
 8000b6c: f7ff ff3f    	bl	0x80009ee <.text+0x9ee> @ imm = #-386
 8000b70: 9903         	ldr	r1, [sp, #12]
 8000b72: 980a         	ldr	r0, [sp, #40]
 8000b74: 9a0b         	ldr	r2, [sp, #44]
 8000b76: 604a         	str	r2, [r1, #4]
 8000b78: 6008         	str	r0, [r1]
 8000b7a: b00c         	add	sp, #48
 8000b7c: bd80         	pop	{r7, pc}
 8000b7e: b580         	push	{r7, lr}
 8000b80: 466f         	mov	r7, sp
 8000b82: b086         	sub	sp, #24
 8000b84: 460a         	mov	r2, r1
 8000b86: 9000         	str	r0, [sp]
 8000b88: f827 2c12    	strh	r2, [r7, #-18]
 8000b8c: f8cd e008    	str.w	lr, [sp, #8]
 8000b90: 2101         	movs	r1, #1
 8000b92: f88d 100c    	strb.w	r1, [sp, #12]
 8000b96: f243 1104    	movw	r1, #12548
 8000b9a: f6c0 0100    	movt	r1, #2048
 8000b9e: 6809         	ldr	r1, [r1]
 8000ba0: b213         	sxth	r3, r2
 8000ba2: eb01 02c3    	add.w	r2, r1, r3, lsl #3
 8000ba6: f851 1033    	ldr.w	r1, [r1, r3, lsl #3]
 8000baa: 6852         	ldr	r2, [r2, #4]
 8000bac: 9205         	str	r2, [sp, #20]
 8000bae: 9104         	str	r1, [sp, #16]
 8000bb0: a902         	add	r1, sp, #8
 8000bb2: aa04         	add	r2, sp, #16
 8000bb4: f000 f9eb    	bl	0x8000f8e <.text+0xf8e> @ imm = #982
 8000bb8: b580         	push	{r7, lr}
 8000bba: 466f         	mov	r7, sp
 8000bbc: b088         	sub	sp, #32
 8000bbe: 6801         	ldr	r1, [r0]
 8000bc0: 6842         	ldr	r2, [r0, #4]
 8000bc2: 6883         	ldr	r3, [r0, #8]
 8000bc4: 9307         	str	r3, [sp, #28]
 8000bc6: 9206         	str	r2, [sp, #24]
 8000bc8: 9105         	str	r1, [sp, #20]
 8000bca: 6880         	ldr	r0, [r0, #8]
 8000bcc: 9002         	str	r0, [sp, #8]
 8000bce: 9905         	ldr	r1, [sp, #20]
 8000bd0: 9a06         	ldr	r2, [sp, #24]
 8000bd2: 9203         	str	r2, [sp, #12]
 8000bd4: 9104         	str	r1, [sp, #16]
 8000bd6: 2800         	cmp	r0, #0
 8000bd8: d207         	bhs	0x8000bea <.text+0xbea> @ imm = #14
 8000bda: e007         	b	0x8000bec <.text+0xbec> @ imm = #14
 8000bdc: 9802         	ldr	r0, [sp, #8]
 8000bde: 9903         	ldr	r1, [sp, #12]
 8000be0: 460a         	mov	r2, r1
 8000be2: 9201         	str	r2, [sp, #4]
 8000be4: 4288         	cmp	r0, r1
 8000be6: d909         	bls	0x8000bfc <.text+0xbfc> @ imm = #18
 8000be8: e009         	b	0x8000bfe <.text+0xbfe> @ imm = #18
 8000bea: e7f7         	b	0x8000bdc <.text+0xbdc> @ imm = #-18
 8000bec: 9902         	ldr	r1, [sp, #8]
 8000bee: 2000         	movs	r0, #0
 8000bf0: f7ff fbcd    	bl	0x800038e <.text+0x38e> @ imm = #-2150
 8000bf4: 9802         	ldr	r0, [sp, #8]
 8000bf6: 2800         	cmp	r0, #0
 8000bf8: d209         	bhs	0x8000c0e <.text+0xc0e> @ imm = #18
 8000bfa: e009         	b	0x8000c10 <.text+0xc10> @ imm = #18
 8000bfc: e7fa         	b	0x8000bf4 <.text+0xbf4> @ imm = #-12
 8000bfe: 9901         	ldr	r1, [sp, #4]
 8000c00: 9802         	ldr	r0, [sp, #8]
 8000c02: f7ff fbd5    	bl	0x80003b0 <.text+0x3b0> @ imm = #-2134
 8000c06: 9902         	ldr	r1, [sp, #8]
 8000c08: 9804         	ldr	r0, [sp, #16]
 8000c0a: b008         	add	sp, #32
 8000c0c: bd80         	pop	{r7, pc}
 8000c0e: e7fa         	b	0x8000c06 <.text+0xc06> @ imm = #-12
 8000c10: 9902         	ldr	r1, [sp, #8]
 8000c12: 2000         	movs	r0, #0
 8000c14: f7ff fbcc    	bl	0x80003b0 <.text+0x3b0> @ imm = #-2152
 8000c18: b580         	push	{r7, lr}
 8000c1a: 466f         	mov	r7, sp
 8000c1c: b08e         	sub	sp, #56
 8000c1e: 9204         	str	r2, [sp, #16]
 8000c20: 460a         	mov	r2, r1
 8000c22: 9205         	str	r2, [sp, #20]
 8000c24: 9006         	str	r0, [sp, #24]
 8000c26: 6811         	ldr	r1, [r2]
 8000c28: 6852         	ldr	r2, [r2, #4]
 8000c2a: 9209         	str	r2, [sp, #36]
 8000c2c: 9108         	str	r1, [sp, #32]
 8000c2e: f240 02c5    	movw	r2, #197
 8000c32: f2c2 0200    	movt	r2, #8192
 8000c36: a908         	add	r1, sp, #32
 8000c38: 231b         	movs	r3, #27
 8000c3a: f7ff fe56    	bl	0x80008ea <.text+0x8ea> @ imm = #-852
 8000c3e: 4601         	mov	r1, r0
 8000c40: 9107         	str	r1, [sp, #28]
 8000c42: 0400         	lsls	r0, r0, #16
 8000c44: b9a8         	cbnz	r0, 0x8000c72 <.text+0xc72> @ imm = #42
 8000c46: e01a         	b	0x8000c7e <.text+0xc7e> @ imm = #52
 8000c48: 9806         	ldr	r0, [sp, #24]
 8000c4a: 9a05         	ldr	r2, [sp, #20]
 8000c4c: 6811         	ldr	r1, [r2]
 8000c4e: 6852         	ldr	r2, [r2, #4]
 8000c50: 920c         	str	r2, [sp, #48]
 8000c52: 910b         	str	r1, [sp, #44]
 8000c54: f240 01c5    	movw	r1, #197
 8000c58: f2c2 0100    	movt	r1, #8192
 8000c5c: f101 021e    	add.w	r2, r1, #30
 8000c60: a90b         	add	r1, sp, #44
 8000c62: 2306         	movs	r3, #6
 8000c64: f7ff fe41    	bl	0x80008ea <.text+0x8ea> @ imm = #-894
 8000c68: 4601         	mov	r1, r0
 8000c6a: 9103         	str	r1, [sp, #12]
 8000c6c: 0400         	lsls	r0, r0, #16
 8000c6e: bb28         	cbnz	r0, 0x8000cbc <.text+0xcbc> @ imm = #74
 8000c70: e02a         	b	0x8000cc8 <.text+0xcc8> @ imm = #84
 8000c72: 9806         	ldr	r0, [sp, #24]
 8000c74: f7ff febb    	bl	0x80009ee <.text+0x9ee> @ imm = #-650
 8000c78: 9807         	ldr	r0, [sp, #28]
 8000c7a: b00e         	add	sp, #56
 8000c7c: bd80         	pop	{r7, pc}
 8000c7e: 9b05         	ldr	r3, [sp, #20]
 8000c80: 9806         	ldr	r0, [sp, #24]
 8000c82: 9904         	ldr	r1, [sp, #16]
 8000c84: 2200         	movs	r2, #0
 8000c86: 920a         	str	r2, [sp, #40]
 8000c88: 6809         	ldr	r1, [r1]
 8000c8a: 46ec         	mov	r12, sp
 8000c8c: 2203         	movs	r2, #3
 8000c8e: f8cc 2000    	str.w	r2, [r12]
 8000c92: f243 02ec    	movw	r2, #12524
 8000c96: f6c0 0200    	movt	r2, #2048
 8000c9a: f7ff fef2    	bl	0x8000a82 <.text+0xa82> @ imm = #-540
 8000c9e: 4601         	mov	r1, r0
 8000ca0: 9102         	str	r1, [sp, #8]
 8000ca2: 0400         	lsls	r0, r0, #16
 8000ca4: b130         	cbz	r0, 0x8000cb4 <.text+0xcb4> @ imm = #12
 8000ca6: e7ff         	b	0x8000ca8 <.text+0xca8> @ imm = #-2
 8000ca8: 9806         	ldr	r0, [sp, #24]
 8000caa: f7ff fea0    	bl	0x80009ee <.text+0x9ee> @ imm = #-704
 8000cae: 9802         	ldr	r0, [sp, #8]
 8000cb0: b00e         	add	sp, #56
 8000cb2: bd80         	pop	{r7, pc}
 8000cb4: e7c8         	b	0x8000c48 <.text+0xc48> @ imm = #-112
 8000cb6: 2000         	movs	r0, #0
 8000cb8: b00e         	add	sp, #56
 8000cba: bd80         	pop	{r7, pc}
 8000cbc: 9806         	ldr	r0, [sp, #24]
 8000cbe: f7ff fe96    	bl	0x80009ee <.text+0x9ee> @ imm = #-724
 8000cc2: 9803         	ldr	r0, [sp, #12]
 8000cc4: b00e         	add	sp, #56
 8000cc6: bd80         	pop	{r7, pc}
 8000cc8: 9b05         	ldr	r3, [sp, #20]
 8000cca: 9806         	ldr	r0, [sp, #24]
 8000ccc: 9904         	ldr	r1, [sp, #16]
 8000cce: 2201         	movs	r2, #1
 8000cd0: 920d         	str	r2, [sp, #52]
 8000cd2: 6849         	ldr	r1, [r1, #4]
 8000cd4: 46ec         	mov	r12, sp
 8000cd6: 2203         	movs	r2, #3
 8000cd8: f8cc 2000    	str.w	r2, [r12]
 8000cdc: f243 02ec    	movw	r2, #12524
 8000ce0: f6c0 0200    	movt	r2, #2048
 8000ce4: f7ff fecd    	bl	0x8000a82 <.text+0xa82> @ imm = #-614
 8000ce8: 4601         	mov	r1, r0
 8000cea: 9101         	str	r1, [sp, #4]
 8000cec: 0400         	lsls	r0, r0, #16
 8000cee: b130         	cbz	r0, 0x8000cfe <.text+0xcfe> @ imm = #12
 8000cf0: e7ff         	b	0x8000cf2 <.text+0xcf2> @ imm = #-2
 8000cf2: 9806         	ldr	r0, [sp, #24]
 8000cf4: f7ff fe7b    	bl	0x80009ee <.text+0x9ee> @ imm = #-778
 8000cf8: 9801         	ldr	r0, [sp, #4]
 8000cfa: b00e         	add	sp, #56
 8000cfc: bd80         	pop	{r7, pc}
 8000cfe: e7da         	b	0x8000cb6 <.text+0xcb6> @ imm = #-76
 8000d00: b580         	push	{r7, lr}
 8000d02: 466f         	mov	r7, sp
 8000d04: b0a0         	sub	sp, #128
 8000d06: 9211         	str	r2, [sp, #68]
 8000d08: 9112         	str	r1, [sp, #72]
 8000d0a: 9013         	str	r0, [sp, #76]
 8000d0c: 68b8         	ldr	r0, [r7, #8]
 8000d0e: 9014         	str	r0, [sp, #80]
 8000d10: 4619         	mov	r1, r3
 8000d12: 9115         	str	r1, [sp, #84]
 8000d14: 9216         	str	r2, [sp, #88]
 8000d16: 9018         	str	r0, [sp, #96]
 8000d18: 9317         	str	r3, [sp, #92]
 8000d1a: b130         	cbz	r0, 0x8000d2a <.text+0xd2a> @ imm = #12
 8000d1c: e00b         	b	0x8000d36 <.text+0xd36> @ imm = #22
 8000d1e: 9811         	ldr	r0, [sp, #68]
 8000d20: 6841         	ldr	r1, [r0, #4]
 8000d22: 6880         	ldr	r0, [r0, #8]
 8000d24: 4288         	cmp	r0, r1
 8000d26: d215         	bhs	0x8000d54 <.text+0xd54> @ imm = #42
 8000d28: e01e         	b	0x8000d68 <.text+0xd68> @ imm = #60
 8000d2a: 9913         	ldr	r1, [sp, #76]
 8000d2c: 2000         	movs	r0, #0
 8000d2e: 6048         	str	r0, [r1, #4]
 8000d30: 6008         	str	r0, [r1]
 8000d32: b020         	add	sp, #128
 8000d34: bd80         	pop	{r7, pc}
 8000d36: e7f2         	b	0x8000d1e <.text+0xd1e> @ imm = #-28
 8000d38: 9911         	ldr	r1, [sp, #68]
 8000d3a: 6848         	ldr	r0, [r1, #4]
 8000d3c: 6889         	ldr	r1, [r1, #8]
 8000d3e: 1a43         	subs	r3, r0, r1
 8000d40: f04f 0200    	mov.w	r2, #0
 8000d44: f142 0200    	adc	r2, r2, #0
 8000d48: f082 0201    	eor	r2, r2, #1
 8000d4c: 9310         	str	r3, [sp, #64]
 8000d4e: 4288         	cmp	r0, r1
 8000d50: d30b         	blo	0x8000d6a <.text+0xd6a> @ imm = #22
 8000d52: e016         	b	0x8000d82 <.text+0xd82> @ imm = #44
 8000d54: 9812         	ldr	r0, [sp, #72]
 8000d56: f7ff fe4a    	bl	0x80009ee <.text+0x9ee> @ imm = #-876
 8000d5a: 9913         	ldr	r1, [sp, #76]
 8000d5c: 2001         	movs	r0, #1
 8000d5e: 6048         	str	r0, [r1, #4]
 8000d60: 2000         	movs	r0, #0
 8000d62: 6008         	str	r0, [r1]
 8000d64: b020         	add	sp, #128
 8000d66: bd80         	pop	{r7, pc}
 8000d68: e7e6         	b	0x8000d38 <.text+0xd38> @ imm = #-52
 8000d6a: f240 0000    	movw	r0, #0
 8000d6e: f2c2 0000    	movt	r0, #8192
 8000d72: f243 03b8    	movw	r3, #12472
 8000d76: f6c0 0300    	movt	r3, #2048
 8000d7a: 2110         	movs	r1, #16
 8000d7c: 2200         	movs	r2, #0
 8000d7e: f7ff faff    	bl	0x8000380 <.text+0x380> @ imm = #-2562
 8000d82: 9811         	ldr	r0, [sp, #68]
 8000d84: 9910         	ldr	r1, [sp, #64]
 8000d86: 9a14         	ldr	r2, [sp, #80]
 8000d88: 4291         	cmp	r1, r2
 8000d8a: bf38         	it	lo
 8000d8c: 460a         	movlo	r2, r1
 8000d8e: 4611         	mov	r1, r2
 8000d90: 910b         	str	r1, [sp, #44]
 8000d92: 9219         	str	r2, [sp, #100]
 8000d94: 901a         	str	r0, [sp, #104]
 8000d96: 991a         	ldr	r1, [sp, #104]
 8000d98: 6880         	ldr	r0, [r0, #8]
 8000d9a: 900c         	str	r0, [sp, #48]
 8000d9c: 680b         	ldr	r3, [r1]
 8000d9e: 6849         	ldr	r1, [r1, #4]
 8000da0: 910d         	str	r1, [sp, #52]
 8000da2: 4403         	add	r3, r0
 8000da4: 930e         	str	r3, [sp, #56]
 8000da6: 4410         	add	r0, r2
 8000da8: 4602         	mov	r2, r0
 8000daa: 920f         	str	r2, [sp, #60]
 8000dac: 4288         	cmp	r0, r1
 8000dae: d905         	bls	0x8000dbc <.text+0xdbc> @ imm = #10
 8000db0: e005         	b	0x8000dbe <.text+0xdbe> @ imm = #10
 8000db2: 980c         	ldr	r0, [sp, #48]
 8000db4: 990f         	ldr	r1, [sp, #60]
 8000db6: 4288         	cmp	r0, r1
 8000db8: d916         	bls	0x8000de8 <.text+0xde8> @ imm = #44
 8000dba: e016         	b	0x8000dea <.text+0xdea> @ imm = #44
 8000dbc: e7f9         	b	0x8000db2 <.text+0xdb2> @ imm = #-14
 8000dbe: 990d         	ldr	r1, [sp, #52]
 8000dc0: 980f         	ldr	r0, [sp, #60]
 8000dc2: f7ff faf5    	bl	0x80003b0 <.text+0x3b0> @ imm = #-2582
 8000dc6: 980b         	ldr	r0, [sp, #44]
 8000dc8: 9914         	ldr	r1, [sp, #80]
 8000dca: 9a15         	ldr	r2, [sp, #84]
 8000dcc: 9b0e         	ldr	r3, [sp, #56]
 8000dce: 4684         	mov	r12, r0
 8000dd0: f8cd c01c    	str.w	r12, [sp, #28]
 8000dd4: 9308         	str	r3, [sp, #32]
 8000dd6: 921b         	str	r2, [sp, #108]
 8000dd8: 911c         	str	r1, [sp, #112]
 8000dda: 991b         	ldr	r1, [sp, #108]
 8000ddc: 9a1c         	ldr	r2, [sp, #112]
 8000dde: 9209         	str	r2, [sp, #36]
 8000de0: 910a         	str	r1, [sp, #40]
 8000de2: 2800         	cmp	r0, #0
 8000de4: d20c         	bhs	0x8000e00 <.text+0xe00> @ imm = #24
 8000de6: e00c         	b	0x8000e02 <.text+0xe02> @ imm = #24
 8000de8: e7ed         	b	0x8000dc6 <.text+0xdc6> @ imm = #-38
 8000dea: 990f         	ldr	r1, [sp, #60]
 8000dec: 980c         	ldr	r0, [sp, #48]
 8000dee: f7ff fadf    	bl	0x80003b0 <.text+0x3b0> @ imm = #-2626
 8000df2: 980b         	ldr	r0, [sp, #44]
 8000df4: 9909         	ldr	r1, [sp, #36]
 8000df6: 460a         	mov	r2, r1
 8000df8: 9206         	str	r2, [sp, #24]
 8000dfa: 4288         	cmp	r0, r1
 8000dfc: d909         	bls	0x8000e12 <.text+0xe12> @ imm = #18
 8000dfe: e009         	b	0x8000e14 <.text+0xe14> @ imm = #18
 8000e00: e7f7         	b	0x8000df2 <.text+0xdf2> @ imm = #-18
 8000e02: 990b         	ldr	r1, [sp, #44]
 8000e04: 2000         	movs	r0, #0
 8000e06: f7ff fac2    	bl	0x800038e <.text+0x38e> @ imm = #-2684
 8000e0a: 980b         	ldr	r0, [sp, #44]
 8000e0c: 2800         	cmp	r0, #0
 8000e0e: d20e         	bhs	0x8000e2e <.text+0xe2e> @ imm = #28
 8000e10: e00e         	b	0x8000e30 <.text+0xe30> @ imm = #28
 8000e12: e7fa         	b	0x8000e0a <.text+0xe0a> @ imm = #-12
 8000e14: 9906         	ldr	r1, [sp, #24]
 8000e16: 980b         	ldr	r0, [sp, #44]
 8000e18: f7ff faca    	bl	0x80003b0 <.text+0x3b0> @ imm = #-2668
 8000e1c: 9807         	ldr	r0, [sp, #28]
 8000e1e: 990b         	ldr	r1, [sp, #44]
 8000e20: 9a0a         	ldr	r2, [sp, #40]
 8000e22: 9204         	str	r2, [sp, #16]
 8000e24: 4602         	mov	r2, r0
 8000e26: 9205         	str	r2, [sp, #20]
 8000e28: 4288         	cmp	r0, r1
 8000e2a: d015         	beq	0x8000e58 <.text+0xe58> @ imm = #42
 8000e2c: e015         	b	0x8000e5a <.text+0xe5a> @ imm = #42
 8000e2e: e7f5         	b	0x8000e1c <.text+0xe1c> @ imm = #-22
 8000e30: 990b         	ldr	r1, [sp, #44]
 8000e32: 2000         	movs	r0, #0
 8000e34: f7ff fabc    	bl	0x80003b0 <.text+0x3b0> @ imm = #-2696
 8000e38: 9808         	ldr	r0, [sp, #32]
 8000e3a: 9a05         	ldr	r2, [sp, #20]
 8000e3c: 9904         	ldr	r1, [sp, #16]
 8000e3e: 460b         	mov	r3, r1
 8000e40: 9302         	str	r3, [sp, #8]
 8000e42: 4411         	add	r1, r2
 8000e44: 4402         	add	r2, r0
 8000e46: 9203         	str	r2, [sp, #12]
 8000e48: 4288         	cmp	r0, r1
 8000e4a: d228         	bhs	0x8000e9e <.text+0xe9e> @ imm = #80
 8000e4c: e7ff         	b	0x8000e4e <.text+0xe4e> @ imm = #-2
 8000e4e: 9802         	ldr	r0, [sp, #8]
 8000e50: 9903         	ldr	r1, [sp, #12]
 8000e52: 4288         	cmp	r0, r1
 8000e54: d223         	bhs	0x8000e9e <.text+0xe9e> @ imm = #70
 8000e56: e023         	b	0x8000ea0 <.text+0xea0> @ imm = #70
 8000e58: e7ee         	b	0x8000e38 <.text+0xe38> @ imm = #-36
 8000e5a: f240 0011    	movw	r0, #17
 8000e5e: f2c2 0000    	movt	r0, #8192
 8000e62: f243 03b8    	movw	r3, #12472
 8000e66: f6c0 0300    	movt	r3, #2048
 8000e6a: 2128         	movs	r1, #40
 8000e6c: 2200         	movs	r2, #0
 8000e6e: f7ff fa87    	bl	0x8000380 <.text+0x380> @ imm = #-2802
 8000e72: 9a07         	ldr	r2, [sp, #28]
 8000e74: 9902         	ldr	r1, [sp, #8]
 8000e76: 9808         	ldr	r0, [sp, #32]
 8000e78: f002 f8a4    	bl	0x8002fc4 <.text+0x2fc4> @ imm = #8520
 8000e7c: 9911         	ldr	r1, [sp, #68]
 8000e7e: 980b         	ldr	r0, [sp, #44]
 8000e80: 911d         	str	r1, [sp, #116]
 8000e82: 9a1d         	ldr	r2, [sp, #116]
 8000e84: f852 1f08    	ldr	r1, [r2, #8]!
 8000e88: 9200         	str	r2, [sp]
 8000e8a: 1840         	adds	r0, r0, r1
 8000e8c: f04f 0200    	mov.w	r2, #0
 8000e90: f142 0200    	adc	r2, r2, #0
 8000e94: 4603         	mov	r3, r0
 8000e96: 9301         	str	r3, [sp, #4]
 8000e98: 4288         	cmp	r0, r1
 8000e9a: d30d         	blo	0x8000eb8 <.text+0xeb8> @ imm = #26
 8000e9c: e018         	b	0x8000ed0 <.text+0xed0> @ imm = #48
 8000e9e: e7e8         	b	0x8000e72 <.text+0xe72> @ imm = #-48
 8000ea0: f240 003a    	movw	r0, #58
 8000ea4: f2c2 0000    	movt	r0, #8192
 8000ea8: f243 03b8    	movw	r3, #12472
 8000eac: f6c0 0300    	movt	r3, #2048
 8000eb0: 2117         	movs	r1, #23
 8000eb2: 2200         	movs	r2, #0
 8000eb4: f7ff fa64    	bl	0x8000380 <.text+0x380> @ imm = #-2872
 8000eb8: f240 0000    	movw	r0, #0
 8000ebc: f2c2 0000    	movt	r0, #8192
 8000ec0: f243 03b8    	movw	r3, #12472
 8000ec4: f6c0 0300    	movt	r3, #2048
 8000ec8: 2110         	movs	r1, #16
 8000eca: 2200         	movs	r2, #0
 8000ecc: f7ff fa58    	bl	0x8000380 <.text+0x380> @ imm = #-2896
 8000ed0: 980b         	ldr	r0, [sp, #44]
 8000ed2: 9901         	ldr	r1, [sp, #4]
 8000ed4: 9a00         	ldr	r2, [sp]
 8000ed6: 6011         	str	r1, [r2]
 8000ed8: b160         	cbz	r0, 0x8000ef4 <.text+0xef4> @ imm = #24
 8000eda: e015         	b	0x8000f08 <.text+0xf08> @ imm = #42
 8000edc: 9913         	ldr	r1, [sp, #76]
 8000ede: 980b         	ldr	r0, [sp, #44]
 8000ee0: 2200         	movs	r2, #0
 8000ee2: f8ad 207c    	strh.w	r2, [sp, #124]
 8000ee6: 901e         	str	r0, [sp, #120]
 8000ee8: 981e         	ldr	r0, [sp, #120]
 8000eea: 9a1f         	ldr	r2, [sp, #124]
 8000eec: 604a         	str	r2, [r1, #4]
 8000eee: 6008         	str	r0, [r1]
 8000ef0: b020         	add	sp, #128
 8000ef2: bd80         	pop	{r7, pc}
 8000ef4: 9812         	ldr	r0, [sp, #72]
 8000ef6: f7ff fd7a    	bl	0x80009ee <.text+0x9ee> @ imm = #-1292
 8000efa: 9913         	ldr	r1, [sp, #76]
 8000efc: 2001         	movs	r0, #1
 8000efe: 6048         	str	r0, [r1, #4]
 8000f00: 2000         	movs	r0, #0
 8000f02: 6008         	str	r0, [r1]
 8000f04: b020         	add	sp, #128
 8000f06: bd80         	pop	{r7, pc}
 8000f08: e7e8         	b	0x8000edc <.text+0xedc> @ imm = #-48
 8000f0a: b580         	push	{r7, lr}
 8000f0c: 466f         	mov	r7, sp
 8000f0e: b08a         	sub	sp, #40
 8000f10: 9102         	str	r1, [sp, #8]
 8000f12: 9003         	str	r0, [sp, #12]
 8000f14: 68b8         	ldr	r0, [r7, #8]
 8000f16: 9005         	str	r0, [sp, #20]
 8000f18: 9304         	str	r3, [sp, #16]
 8000f1a: f8d2 c000    	ldr.w	r12, [r2]
 8000f1e: f8d2 e004    	ldr.w	lr, [r2, #4]
 8000f22: f8cd e01c    	str.w	lr, [sp, #28]
 8000f26: f8cd c018    	str.w	r12, [sp, #24]
 8000f2a: f8dd c01c    	ldr.w	r12, [sp, #28]
 8000f2e: 6812         	ldr	r2, [r2]
 8000f30: 46ee         	mov	lr, sp
 8000f32: f8ce 0000    	str.w	r0, [lr]
 8000f36: a808         	add	r0, sp, #32
 8000f38: 47e0         	blx	r12
 8000f3a: f8bd 0024    	ldrh.w	r0, [sp, #36]
 8000f3e: b938         	cbnz	r0, 0x8000f50 <.text+0xf50> @ imm = #14
 8000f40: e7ff         	b	0x8000f42 <.text+0xf42> @ imm = #-2
 8000f42: 9903         	ldr	r1, [sp, #12]
 8000f44: 9808         	ldr	r0, [sp, #32]
 8000f46: 9a09         	ldr	r2, [sp, #36]
 8000f48: 604a         	str	r2, [r1, #4]
 8000f4a: 6008         	str	r0, [r1]
 8000f4c: b00a         	add	sp, #40
 8000f4e: bd80         	pop	{r7, pc}
 8000f50: 9802         	ldr	r0, [sp, #8]
 8000f52: f7ff fd4c    	bl	0x80009ee <.text+0x9ee> @ imm = #-1384
 8000f56: 9903         	ldr	r1, [sp, #12]
 8000f58: 9808         	ldr	r0, [sp, #32]
 8000f5a: 9a09         	ldr	r2, [sp, #36]
 8000f5c: 604a         	str	r2, [r1, #4]
 8000f5e: 6008         	str	r0, [r1]
 8000f60: b00a         	add	sp, #40
 8000f62: bd80         	pop	{r7, pc}
 8000f64: b580         	push	{r7, lr}
 8000f66: 466f         	mov	r7, sp
 8000f68: b084         	sub	sp, #16
 8000f6a: 9001         	str	r0, [sp, #4]
 8000f6c: 9103         	str	r1, [sp, #12]
 8000f6e: f001 f83e    	bl	0x8001fee <.text+0x1fee> @ imm = #4220
 8000f72: 4601         	mov	r1, r0
 8000f74: 9102         	str	r1, [sp, #8]
 8000f76: 0400         	lsls	r0, r0, #16
 8000f78: b918         	cbnz	r0, 0x8000f82 <.text+0xf82> @ imm = #6
 8000f7a: e7ff         	b	0x8000f7c <.text+0xf7c> @ imm = #-2
 8000f7c: 9802         	ldr	r0, [sp, #8]
 8000f7e: b004         	add	sp, #16
 8000f80: bd80         	pop	{r7, pc}
 8000f82: 9801         	ldr	r0, [sp, #4]
 8000f84: f7ff fd33    	bl	0x80009ee <.text+0x9ee> @ imm = #-1434
 8000f88: 9802         	ldr	r0, [sp, #8]
 8000f8a: b004         	add	sp, #16
 8000f8c: bd80         	pop	{r7, pc}
 8000f8e: b5b0         	push	{r4, r5, r7, lr}
 8000f90: af02         	add	r7, sp, #8
 8000f92: f5ad 5d87    	sub.w	sp, sp, #4320
 8000f96: b084         	sub	sp, #16
 8000f98: 9206         	str	r2, [sp, #24]
 8000f9a: 9107         	str	r1, [sp, #28]
 8000f9c: 9008         	str	r0, [sp, #32]
 8000f9e: 900c         	str	r0, [sp, #48]
 8000fa0: 2020         	movs	r0, #32
 8000fa2: 902f         	str	r0, [sp, #188]
 8000fa4: a80d         	add	r0, sp, #52
 8000fa6: 902e         	str	r0, [sp, #184]
 8000fa8: 2000         	movs	r0, #0
 8000faa: 902d         	str	r0, [sp, #180]
 8000fac: 982d         	ldr	r0, [sp, #180]
 8000fae: 9009         	str	r0, [sp, #36]
 8000fb0: f240 006f    	movw	r0, #111
 8000fb4: f2c2 0000    	movt	r0, #8192
 8000fb8: 9030         	str	r0, [sp, #192]
 8000fba: f10d 00c5    	add.w	r0, sp, #197
 8000fbe: 900a         	str	r0, [sp, #40]
 8000fc0: f241 010f    	movw	r1, #4111
 8000fc4: 22aa         	movs	r2, #170
 8000fc6: f002 f83c    	bl	0x8003042 <.text+0x3042> @ imm = #8312
 8000fca: 980a         	ldr	r0, [sp, #40]
 8000fcc: 900b         	str	r0, [sp, #44]
 8000fce: 2001         	movs	r0, #1
 8000fd0: b978         	cbnz	r0, 0x8000ff2 <.text+0xff2> @ imm = #30
 8000fd2: e00f         	b	0x8000ff4 <.text+0xff4> @ imm = #30
 8000fd4: 9a0b         	ldr	r2, [sp, #44]
 8000fd6: 9806         	ldr	r0, [sp, #24]
 8000fd8: 4669         	mov	r1, sp
 8000fda: 6008         	str	r0, [r1]
 8000fdc: f1a7 0024    	sub.w	r0, r7, #36
 8000fe0: a92d         	add	r1, sp, #180
 8000fe2: f44f 5380    	mov.w	r3, #4096
 8000fe6: f001 f81f    	bl	0x8002028 <.text+0x2028> @ imm = #4158
 8000fea: f837 0c1c    	ldrh	r0, [r7, #-28]
 8000fee: b1c8         	cbz	r0, 0x8001024 <.text+0x1024> @ imm = #50
 8000ff0: e01f         	b	0x8001032 <.text+0x1032> @ imm = #62
 8000ff2: e7ef         	b	0x8000fd4 <.text+0xfd4> @ imm = #-34
 8000ff4: f44f 5080    	mov.w	r0, #4096
 8000ff8: f241 010f    	movw	r1, #4111
 8000ffc: f7ff f9d8    	bl	0x80003b0 <.text+0x3b0> @ imm = #-3152
 8001000: 9b07         	ldr	r3, [sp, #28]
 8001002: 9a08         	ldr	r2, [sp, #32]
 8001004: 9805         	ldr	r0, [sp, #20]
 8001006: 9904         	ldr	r1, [sp, #16]
 8001008: f847 0c18    	str	r0, [r7, #-24]
 800100c: f847 1c14    	str	r1, [r7, #-20]
 8001010: f847 1c0c    	str	r1, [r7, #-12]
 8001014: f847 0c10    	str	r0, [r7, #-16]
 8001018: f857 0c10    	ldr	r0, [r7, #-16]
 800101c: f857 1c0c    	ldr	r1, [r7, #-12]
 8001020: f7ff f9ae    	bl	0x8000380 <.text+0x380> @ imm = #-3236
 8001024: f857 1c24    	ldr	r1, [r7, #-36]
 8001028: f857 0c20    	ldr	r0, [r7, #-32]
 800102c: 9105         	str	r1, [sp, #20]
 800102e: 9004         	str	r0, [sp, #16]
 8001030: e7e6         	b	0x8001000 <.text+0x1000> @ imm = #-52
 8001032: f837 0c1c    	ldrh	r0, [r7, #-28]
 8001036: 2801         	cmp	r0, #1
 8001038: d00c         	beq	0x8001054 <.text+0x1054> @ imm = #24
 800103a: e7ff         	b	0x800103c <.text+0x103c> @ imm = #-2
 800103c: f240 007f    	movw	r0, #127
 8001040: f2c2 0000    	movt	r0, #8192
 8001044: f243 03b8    	movw	r3, #12472
 8001048: f6c0 0300    	movt	r3, #2048
 800104c: 2117         	movs	r1, #23
 800104e: 2200         	movs	r2, #0
 8001050: f7ff f996    	bl	0x8000380 <.text+0x380> @ imm = #-3284
 8001054: f10d 00c5    	add.w	r0, sp, #197
 8001058: f500 5080    	add.w	r0, r0, #4096
 800105c: 9003         	str	r0, [sp, #12]
 800105e: 2001         	movs	r0, #1
 8001060: b9a0         	cbnz	r0, 0x800108c <.text+0x108c> @ imm = #40
 8001062: e014         	b	0x800108e <.text+0x108e> @ imm = #40
 8001064: 9803         	ldr	r0, [sp, #12]
 8001066: f100 020f    	add.w	r2, r0, #15
 800106a: f240 016f    	movw	r1, #111
 800106e: f2c2 0100    	movt	r1, #8192
 8001072: 310f         	adds	r1, #15
 8001074: 9202         	str	r2, [sp, #8]
 8001076: 4288         	cmp	r0, r1
 8001078: d22a         	bhs	0x80010d0 <.text+0x10d0> @ imm = #84
 800107a: e7ff         	b	0x800107c <.text+0x107c> @ imm = #-2
 800107c: 9902         	ldr	r1, [sp, #8]
 800107e: f240 006f    	movw	r0, #111
 8001082: f2c2 0000    	movt	r0, #8192
 8001086: 4288         	cmp	r0, r1
 8001088: d222         	bhs	0x80010d0 <.text+0x10d0> @ imm = #68
 800108a: e022         	b	0x80010d2 <.text+0x10d2> @ imm = #68
 800108c: e7ea         	b	0x8001064 <.text+0x1064> @ imm = #-44
 800108e: f241 010f    	movw	r1, #4111
 8001092: 4608         	mov	r0, r1
 8001094: f7ff f98c    	bl	0x80003b0 <.text+0x3b0> @ imm = #-3304
 8001098: 9809         	ldr	r0, [sp, #36]
 800109a: 9a03         	ldr	r2, [sp, #12]
 800109c: f240 0e6f    	movw	lr, #111
 80010a0: f2c2 0e00    	movt	lr, #8192
 80010a4: f8de 1000    	ldr.w	r1, [lr]
 80010a8: f8de 3004    	ldr.w	r3, [lr, #4]
 80010ac: f8de c008    	ldr.w	r12, [lr, #8]
 80010b0: f8de e00b    	ldr.w	lr, [lr, #11]
 80010b4: f8c2 e00b    	str.w	lr, [r2, #11]
 80010b8: f8c2 c008    	str.w	r12, [r2, #8]
 80010bc: 6053         	str	r3, [r2, #4]
 80010be: 6011         	str	r1, [r2]
 80010c0: 902d         	str	r0, [sp, #180]
 80010c2: f241 000f    	movw	r0, #4111
 80010c6: f10d 01c5    	add.w	r1, sp, #197
 80010ca: 9105         	str	r1, [sp, #20]
 80010cc: 9004         	str	r0, [sp, #16]
 80010ce: e797         	b	0x8001000 <.text+0x1000> @ imm = #-210
 80010d0: e7e2         	b	0x8001098 <.text+0x1098> @ imm = #-60
 80010d2: f240 003a    	movw	r0, #58
 80010d6: f2c2 0000    	movt	r0, #8192
 80010da: f243 03b8    	movw	r3, #12472
 80010de: f6c0 0300    	movt	r3, #2048
 80010e2: 2117         	movs	r1, #23
 80010e4: 2200         	movs	r2, #0
 80010e6: f7ff f94b    	bl	0x8000380 <.text+0x380> @ imm = #-3434
 80010ea: b580         	push	{r7, lr}
 80010ec: 466f         	mov	r7, sp
 80010ee: b086         	sub	sp, #24
 80010f0: 9102         	str	r1, [sp, #8]
 80010f2: 9003         	str	r0, [sp, #12]
 80010f4: 4610         	mov	r0, r2
 80010f6: 9004         	str	r0, [sp, #16]
 80010f8: f807 2c01    	strb	r2, [r7, #-1]
 80010fc: e005         	b	0x800110a <.text+0x110a> @ imm = #10
 80010fe: 9800         	ldr	r0, [sp]
 8001100: 9001         	str	r0, [sp, #4]
 8001102: 8800         	ldrh	r0, [r0]
 8001104: 2800         	cmp	r0, #0
 8001106: d044         	beq	0x8001192 <.text+0x1192> @ imm = #136
 8001108: e049         	b	0x800119e <.text+0x119e> @ imm = #146
 800110a: 2000         	movs	r0, #0
 800110c: b958         	cbnz	r0, 0x8001126 <.text+0x1126> @ imm = #22
 800110e: e7ff         	b	0x8001110 <.text+0x1110> @ imm = #-2
 8001110: 9804         	ldr	r0, [sp, #16]
 8001112: b240         	sxtb	r0, r0
 8001114: 2800         	cmp	r0, #0
 8001116: d406         	bmi	0x8001126 <.text+0x1126> @ imm = #12
 8001118: e7ff         	b	0x800111a <.text+0x111a> @ imm = #-2
 800111a: f243 00c4    	movw	r0, #12484
 800111e: f6c0 0000    	movt	r0, #2048
 8001122: 9000         	str	r0, [sp]
 8001124: e7eb         	b	0x80010fe <.text+0x10fe> @ imm = #-42
 8001126: 9804         	ldr	r0, [sp, #16]
 8001128: b2c0         	uxtb	r0, r0
 800112a: 28c0         	cmp	r0, #192
 800112c: d30b         	blo	0x8001146 <.text+0x1146> @ imm = #22
 800112e: e7ff         	b	0x8001130 <.text+0x1130> @ imm = #-2
 8001130: 9804         	ldr	r0, [sp, #16]
 8001132: b2c0         	uxtb	r0, r0
 8001134: 28df         	cmp	r0, #223
 8001136: d806         	bhi	0x8001146 <.text+0x1146> @ imm = #12
 8001138: e7ff         	b	0x800113a <.text+0x113a> @ imm = #-2
 800113a: f243 00c8    	movw	r0, #12488
 800113e: f6c0 0000    	movt	r0, #2048
 8001142: 9000         	str	r0, [sp]
 8001144: e7db         	b	0x80010fe <.text+0x10fe> @ imm = #-74
 8001146: 9804         	ldr	r0, [sp, #16]
 8001148: b2c0         	uxtb	r0, r0
 800114a: 28e0         	cmp	r0, #224
 800114c: d30b         	blo	0x8001166 <.text+0x1166> @ imm = #22
 800114e: e7ff         	b	0x8001150 <.text+0x1150> @ imm = #-2
 8001150: 9804         	ldr	r0, [sp, #16]
 8001152: b2c0         	uxtb	r0, r0
 8001154: 28ef         	cmp	r0, #239
 8001156: d806         	bhi	0x8001166 <.text+0x1166> @ imm = #12
 8001158: e7ff         	b	0x800115a <.text+0x115a> @ imm = #-2
 800115a: f243 00d0    	movw	r0, #12496
 800115e: f6c0 0000    	movt	r0, #2048
 8001162: 9000         	str	r0, [sp]
 8001164: e7cb         	b	0x80010fe <.text+0x10fe> @ imm = #-106
 8001166: 9804         	ldr	r0, [sp, #16]
 8001168: b2c0         	uxtb	r0, r0
 800116a: 28f0         	cmp	r0, #240
 800116c: d30b         	blo	0x8001186 <.text+0x1186> @ imm = #22
 800116e: e7ff         	b	0x8001170 <.text+0x1170> @ imm = #-2
 8001170: 9804         	ldr	r0, [sp, #16]
 8001172: b2c0         	uxtb	r0, r0
 8001174: 28f7         	cmp	r0, #247
 8001176: d806         	bhi	0x8001186 <.text+0x1186> @ imm = #12
 8001178: e7ff         	b	0x800117a <.text+0x117a> @ imm = #-2
 800117a: f243 00c0    	movw	r0, #12480
 800117e: f6c0 0000    	movt	r0, #2048
 8001182: 9000         	str	r0, [sp]
 8001184: e7bb         	b	0x80010fe <.text+0x10fe> @ imm = #-138
 8001186: f243 00cc    	movw	r0, #12492
 800118a: f6c0 0000    	movt	r0, #2048
 800118e: 9000         	str	r0, [sp]
 8001190: e7b5         	b	0x80010fe <.text+0x10fe> @ imm = #-150
 8001192: 9903         	ldr	r1, [sp, #12]
 8001194: 9801         	ldr	r0, [sp, #4]
 8001196: 6800         	ldr	r0, [r0]
 8001198: 6008         	str	r0, [r1]
 800119a: b006         	add	sp, #24
 800119c: bd80         	pop	{r7, pc}
 800119e: 9802         	ldr	r0, [sp, #8]
 80011a0: f7ff fc25    	bl	0x80009ee <.text+0x9ee> @ imm = #-1974
 80011a4: 9801         	ldr	r0, [sp, #4]
 80011a6: 9903         	ldr	r1, [sp, #12]
 80011a8: 6800         	ldr	r0, [r0]
 80011aa: 6008         	str	r0, [r1]
 80011ac: b006         	add	sp, #24
 80011ae: bd80         	pop	{r7, pc}
 80011b0: b580         	push	{r7, lr}
 80011b2: 466f         	mov	r7, sp
 80011b4: b0ac         	sub	sp, #176
 80011b6: 9112         	str	r1, [sp, #72]
 80011b8: 9013         	str	r0, [sp, #76]
 80011ba: 4618         	mov	r0, r3
 80011bc: 9014         	str	r0, [sp, #80]
 80011be: 4610         	mov	r0, r2
 80011c0: 9015         	str	r0, [sp, #84]
 80011c2: 9317         	str	r3, [sp, #92]
 80011c4: 9216         	str	r2, [sp, #88]
 80011c6: 2000         	movs	r0, #0
 80011c8: 9018         	str	r0, [sp, #96]
 80011ca: 9019         	str	r0, [sp, #100]
 80011cc: e00b         	b	0x80011e6 <.text+0x11e6> @ imm = #22
 80011ce: 9913         	ldr	r1, [sp, #76]
 80011d0: 9818         	ldr	r0, [sp, #96]
 80011d2: 2200         	movs	r2, #0
 80011d4: f8ad 20ac    	strh.w	r2, [sp, #172]
 80011d8: 902a         	str	r0, [sp, #168]
 80011da: 982a         	ldr	r0, [sp, #168]
 80011dc: 9a2b         	ldr	r2, [sp, #172]
 80011de: 604a         	str	r2, [r1, #4]
 80011e0: 6008         	str	r0, [r1]
 80011e2: b02c         	add	sp, #176
 80011e4: bd80         	pop	{r7, pc}
 80011e6: 9914         	ldr	r1, [sp, #80]
 80011e8: 9819         	ldr	r0, [sp, #100]
 80011ea: 4288         	cmp	r0, r1
 80011ec: d301         	blo	0x80011f2 <.text+0x11f2> @ imm = #2
 80011ee: e001         	b	0x80011f4 <.text+0x11f4> @ imm = #2
 80011f0: e7f9         	b	0x80011e6 <.text+0x11e6> @ imm = #-14
 80011f2: e005         	b	0x8001200 <.text+0x1200> @ imm = #10
 80011f4: e7eb         	b	0x80011ce <.text+0x11ce> @ imm = #-42
 80011f6: 9914         	ldr	r1, [sp, #80]
 80011f8: 9819         	ldr	r0, [sp, #100]
 80011fa: 4288         	cmp	r0, r1
 80011fc: d379         	blo	0x80012f2 <.text+0x12f2> @ imm = #242
 80011fe: e080         	b	0x8001302 <.text+0x1302> @ imm = #256
 8001200: 9919         	ldr	r1, [sp, #100]
 8001202: 1d08         	adds	r0, r1, #4
 8001204: f04f 0200    	mov.w	r2, #0
 8001208: f142 0200    	adc	r2, r2, #0
 800120c: 4603         	mov	r3, r0
 800120e: 9311         	str	r3, [sp, #68]
 8001210: 4288         	cmp	r0, r1
 8001212: d301         	blo	0x8001218 <.text+0x1218> @ imm = #2
 8001214: e00c         	b	0x8001230 <.text+0x1230> @ imm = #24
 8001216: e7f3         	b	0x8001200 <.text+0x1200> @ imm = #-26
 8001218: f240 0000    	movw	r0, #0
 800121c: f2c2 0000    	movt	r0, #8192
 8001220: f243 03b8    	movw	r3, #12472
 8001224: f6c0 0300    	movt	r3, #2048
 8001228: 2110         	movs	r1, #16
 800122a: 2200         	movs	r2, #0
 800122c: f7ff f8a8    	bl	0x8000380 <.text+0x380> @ imm = #-3760
 8001230: 9811         	ldr	r0, [sp, #68]
 8001232: 9914         	ldr	r1, [sp, #80]
 8001234: 4288         	cmp	r0, r1
 8001236: d810         	bhi	0x800125a <.text+0x125a> @ imm = #32
 8001238: e7ff         	b	0x800123a <.text+0x123a> @ imm = #-2
 800123a: 9814         	ldr	r0, [sp, #80]
 800123c: 9915         	ldr	r1, [sp, #84]
 800123e: 911a         	str	r1, [sp, #104]
 8001240: 901b         	str	r0, [sp, #108]
 8001242: 9819         	ldr	r0, [sp, #100]
 8001244: 9a1a         	ldr	r2, [sp, #104]
 8001246: 991b         	ldr	r1, [sp, #108]
 8001248: 910e         	str	r1, [sp, #56]
 800124a: 4402         	add	r2, r0
 800124c: 920f         	str	r2, [sp, #60]
 800124e: 3004         	adds	r0, #4
 8001250: 4602         	mov	r2, r0
 8001252: 9210         	str	r2, [sp, #64]
 8001254: 4288         	cmp	r0, r1
 8001256: d915         	bls	0x8001284 <.text+0x1284> @ imm = #42
 8001258: e015         	b	0x8001286 <.text+0x1286> @ imm = #42
 800125a: e7cc         	b	0x80011f6 <.text+0x11f6> @ imm = #-104
 800125c: 9919         	ldr	r1, [sp, #100]
 800125e: 1d08         	adds	r0, r1, #4
 8001260: f04f 0200    	mov.w	r2, #0
 8001264: f142 0200    	adc	r2, r2, #0
 8001268: 4603         	mov	r3, r0
 800126a: 930d         	str	r3, [sp, #52]
 800126c: 4288         	cmp	r0, r1
 800126e: d330         	blo	0x80012d2 <.text+0x12d2> @ imm = #96
 8001270: e03b         	b	0x80012ea <.text+0x12ea> @ imm = #118
 8001272: 980f         	ldr	r0, [sp, #60]
 8001274: 901c         	str	r0, [sp, #112]
 8001276: 2101         	movs	r1, #1
 8001278: f807 1c39    	strb	r1, [r7, #-57]
 800127c: 6800         	ldr	r0, [r0]
 800127e: 901e         	str	r0, [sp, #120]
 8001280: 900c         	str	r0, [sp, #48]
 8001282: e004         	b	0x800128e <.text+0x128e> @ imm = #8
 8001284: e7f5         	b	0x8001272 <.text+0x1272> @ imm = #-22
 8001286: 990e         	ldr	r1, [sp, #56]
 8001288: 9810         	ldr	r0, [sp, #64]
 800128a: f7ff f891    	bl	0x80003b0 <.text+0x3b0> @ imm = #-3806
 800128e: 980c         	ldr	r0, [sp, #48]
 8001290: 901f         	str	r0, [sp, #124]
 8001292: f010 3f80    	tst.w	r0, #2155905152
 8001296: d10b         	bne	0x80012b0 <.text+0x12b0> @ imm = #22
 8001298: e00b         	b	0x80012b2 <.text+0x12b2> @ imm = #22
 800129a: 9918         	ldr	r1, [sp, #96]
 800129c: 1d08         	adds	r0, r1, #4
 800129e: f04f 0200    	mov.w	r2, #0
 80012a2: f142 0200    	adc	r2, r2, #0
 80012a6: 4603         	mov	r3, r0
 80012a8: 930b         	str	r3, [sp, #44]
 80012aa: 4288         	cmp	r0, r1
 80012ac: d302         	blo	0x80012b4 <.text+0x12b4> @ imm = #4
 80012ae: e00d         	b	0x80012cc <.text+0x12cc> @ imm = #26
 80012b0: e7a1         	b	0x80011f6 <.text+0x11f6> @ imm = #-190
 80012b2: e7f2         	b	0x800129a <.text+0x129a> @ imm = #-28
 80012b4: f240 0000    	movw	r0, #0
 80012b8: f2c2 0000    	movt	r0, #8192
 80012bc: f243 03b8    	movw	r3, #12472
 80012c0: f6c0 0300    	movt	r3, #2048
 80012c4: 2110         	movs	r1, #16
 80012c6: 2200         	movs	r2, #0
 80012c8: f7ff f85a    	bl	0x8000380 <.text+0x380> @ imm = #-3916
 80012cc: 980b         	ldr	r0, [sp, #44]
 80012ce: 9018         	str	r0, [sp, #96]
 80012d0: e7c4         	b	0x800125c <.text+0x125c> @ imm = #-120
 80012d2: f240 0000    	movw	r0, #0
 80012d6: f2c2 0000    	movt	r0, #8192
 80012da: f243 03b8    	movw	r3, #12472
 80012de: f6c0 0300    	movt	r3, #2048
 80012e2: 2110         	movs	r1, #16
 80012e4: 2200         	movs	r2, #0
 80012e6: f7ff f84b    	bl	0x8000380 <.text+0x380> @ imm = #-3946
 80012ea: 980d         	ldr	r0, [sp, #52]
 80012ec: 9019         	str	r0, [sp, #100]
 80012ee: e792         	b	0x8001216 <.text+0x1216> @ imm = #-220
 80012f0: e77e         	b	0x80011f0 <.text+0x11f0> @ imm = #-260
 80012f2: 9914         	ldr	r1, [sp, #80]
 80012f4: 9819         	ldr	r0, [sp, #100]
 80012f6: 9009         	str	r0, [sp, #36]
 80012f8: 460a         	mov	r2, r1
 80012fa: 920a         	str	r2, [sp, #40]
 80012fc: 4288         	cmp	r0, r1
 80012fe: d30c         	blo	0x800131a <.text+0x131a> @ imm = #24
 8001300: e00c         	b	0x800131c <.text+0x131c> @ imm = #24
 8001302: e7f5         	b	0x80012f0 <.text+0x12f0> @ imm = #-22
 8001304: 9912         	ldr	r1, [sp, #72]
 8001306: 9815         	ldr	r0, [sp, #84]
 8001308: 9a09         	ldr	r2, [sp, #36]
 800130a: 5c82         	ldrb	r2, [r0, r2]
 800130c: a820         	add	r0, sp, #128
 800130e: f7ff feec    	bl	0x80010ea <.text+0x10ea> @ imm = #-552
 8001312: f8bd 0080    	ldrh.w	r0, [sp, #128]
 8001316: b928         	cbnz	r0, 0x8001324 <.text+0x1324> @ imm = #10
 8001318: e012         	b	0x8001340 <.text+0x1340> @ imm = #36
 800131a: e7f3         	b	0x8001304 <.text+0x1304> @ imm = #-26
 800131c: 990a         	ldr	r1, [sp, #40]
 800131e: 9809         	ldr	r0, [sp, #36]
 8001320: f7ff f846    	bl	0x80003b0 <.text+0x3b0> @ imm = #-3956
 8001324: 9812         	ldr	r0, [sp, #72]
 8001326: f8bd 1080    	ldrh.w	r1, [sp, #128]
 800132a: f8ad 1088    	strh.w	r1, [sp, #136]
 800132e: f7ff fb5e    	bl	0x80009ee <.text+0x9ee> @ imm = #-2372
 8001332: 9913         	ldr	r1, [sp, #76]
 8001334: 9821         	ldr	r0, [sp, #132]
 8001336: 9a22         	ldr	r2, [sp, #136]
 8001338: 604a         	str	r2, [r1, #4]
 800133a: 6008         	str	r0, [r1]
 800133c: b02c         	add	sp, #176
 800133e: bd80         	pop	{r7, pc}
 8001340: f89d 0082    	ldrb.w	r0, [sp, #130]
 8001344: 4601         	mov	r1, r0
 8001346: 9107         	str	r1, [sp, #28]
 8001348: f807 0c21    	strb	r0, [r7, #-33]
 800134c: 9919         	ldr	r1, [sp, #100]
 800134e: 1840         	adds	r0, r0, r1
 8001350: f04f 0200    	mov.w	r2, #0
 8001354: f142 0200    	adc	r2, r2, #0
 8001358: 4603         	mov	r3, r0
 800135a: 9308         	str	r3, [sp, #32]
 800135c: 4288         	cmp	r0, r1
 800135e: d306         	blo	0x800136e <.text+0x136e> @ imm = #12
 8001360: e011         	b	0x8001386 <.text+0x1386> @ imm = #34
 8001362: 9807         	ldr	r0, [sp, #28]
 8001364: f000 0007    	and	r0, r0, #7
 8001368: 2801         	cmp	r0, #1
 800136a: d03f         	beq	0x80013ec <.text+0x13ec> @ imm = #126
 800136c: e029         	b	0x80013c2 <.text+0x13c2> @ imm = #82
 800136e: f240 0000    	movw	r0, #0
 8001372: f2c2 0000    	movt	r0, #8192
 8001376: f243 03b8    	movw	r3, #12472
 800137a: f6c0 0300    	movt	r3, #2048
 800137e: 2110         	movs	r1, #16
 8001380: 2200         	movs	r2, #0
 8001382: f7fe fffd    	bl	0x8000380 <.text+0x380> @ imm = #-4102
 8001386: 9808         	ldr	r0, [sp, #32]
 8001388: 9914         	ldr	r1, [sp, #80]
 800138a: 4288         	cmp	r0, r1
 800138c: d90a         	bls	0x80013a4 <.text+0x13a4> @ imm = #20
 800138e: e7ff         	b	0x8001390 <.text+0x1390> @ imm = #-2
 8001390: 9812         	ldr	r0, [sp, #72]
 8001392: f7ff fb2c    	bl	0x80009ee <.text+0x9ee> @ imm = #-2472
 8001396: 9913         	ldr	r1, [sp, #76]
 8001398: 2009         	movs	r0, #9
 800139a: 6048         	str	r0, [r1, #4]
 800139c: 2000         	movs	r0, #0
 800139e: 6008         	str	r0, [r1]
 80013a0: b02c         	add	sp, #176
 80013a2: bd80         	pop	{r7, pc}
 80013a4: e7dd         	b	0x8001362 <.text+0x1362> @ imm = #-70
 80013a6: 9807         	ldr	r0, [sp, #28]
 80013a8: 9919         	ldr	r1, [sp, #100]
 80013aa: f000 0007    	and	r0, r0, #7
 80013ae: 1840         	adds	r0, r0, r1
 80013b0: f04f 0200    	mov.w	r2, #0
 80013b4: f142 0200    	adc	r2, r2, #0
 80013b8: 4603         	mov	r3, r0
 80013ba: 9306         	str	r3, [sp, #24]
 80013bc: 4288         	cmp	r0, r1
 80013be: d33e         	blo	0x800143e <.text+0x143e> @ imm = #124
 80013c0: e049         	b	0x8001456 <.text+0x1456> @ imm = #146
 80013c2: 9a07         	ldr	r2, [sp, #28]
 80013c4: 9814         	ldr	r0, [sp, #80]
 80013c6: 9915         	ldr	r1, [sp, #84]
 80013c8: 9124         	str	r1, [sp, #144]
 80013ca: 9025         	str	r0, [sp, #148]
 80013cc: 9819         	ldr	r0, [sp, #100]
 80013ce: 9001         	str	r0, [sp, #4]
 80013d0: 9b24         	ldr	r3, [sp, #144]
 80013d2: 9925         	ldr	r1, [sp, #148]
 80013d4: 9102         	str	r1, [sp, #8]
 80013d6: 4403         	add	r3, r0
 80013d8: 9303         	str	r3, [sp, #12]
 80013da: f002 0207    	and	r2, r2, #7
 80013de: 4410         	add	r0, r2
 80013e0: 4603         	mov	r3, r0
 80013e2: 9304         	str	r3, [sp, #16]
 80013e4: 9205         	str	r2, [sp, #20]
 80013e6: 4288         	cmp	r0, r1
 80013e8: d906         	bls	0x80013f8 <.text+0x13f8> @ imm = #12
 80013ea: e006         	b	0x80013fa <.text+0x13fa> @ imm = #12
 80013ec: e7db         	b	0x80013a6 <.text+0x13a6> @ imm = #-74
 80013ee: 9801         	ldr	r0, [sp, #4]
 80013f0: 9904         	ldr	r1, [sp, #16]
 80013f2: 4288         	cmp	r0, r1
 80013f4: d90f         	bls	0x8001416 <.text+0x1416> @ imm = #30
 80013f6: e00f         	b	0x8001418 <.text+0x1418> @ imm = #30
 80013f8: e7f9         	b	0x80013ee <.text+0x13ee> @ imm = #-14
 80013fa: 9902         	ldr	r1, [sp, #8]
 80013fc: 9804         	ldr	r0, [sp, #16]
 80013fe: f7fe ffd7    	bl	0x80003b0 <.text+0x3b0> @ imm = #-4178
 8001402: 9b05         	ldr	r3, [sp, #20]
 8001404: 9a03         	ldr	r2, [sp, #12]
 8001406: 9912         	ldr	r1, [sp, #72]
 8001408: a826         	add	r0, sp, #152
 800140a: f000 f841    	bl	0x8001490 <.text+0x1490> @ imm = #130
 800140e: f8bd 009c    	ldrh.w	r0, [sp, #156]
 8001412: b928         	cbnz	r0, 0x8001420 <.text+0x1420> @ imm = #10
 8001414: e012         	b	0x800143c <.text+0x143c> @ imm = #36
 8001416: e7f4         	b	0x8001402 <.text+0x1402> @ imm = #-24
 8001418: 9904         	ldr	r1, [sp, #16]
 800141a: 9801         	ldr	r0, [sp, #4]
 800141c: f7fe ffc8    	bl	0x80003b0 <.text+0x3b0> @ imm = #-4208
 8001420: 9812         	ldr	r0, [sp, #72]
 8001422: f8bd 109c    	ldrh.w	r1, [sp, #156]
 8001426: f8ad 10a4    	strh.w	r1, [sp, #164]
 800142a: f7ff fae0    	bl	0x80009ee <.text+0x9ee> @ imm = #-2624
 800142e: 9913         	ldr	r1, [sp, #76]
 8001430: 9828         	ldr	r0, [sp, #160]
 8001432: 9a29         	ldr	r2, [sp, #164]
 8001434: 604a         	str	r2, [r1, #4]
 8001436: 6008         	str	r0, [r1]
 8001438: b02c         	add	sp, #176
 800143a: bd80         	pop	{r7, pc}
 800143c: e7b3         	b	0x80013a6 <.text+0x13a6> @ imm = #-154
 800143e: f240 0000    	movw	r0, #0
 8001442: f2c2 0000    	movt	r0, #8192
 8001446: f243 03b8    	movw	r3, #12472
 800144a: f6c0 0300    	movt	r3, #2048
 800144e: 2110         	movs	r1, #16
 8001450: 2200         	movs	r2, #0
 8001452: f7fe ff95    	bl	0x8000380 <.text+0x380> @ imm = #-4310
 8001456: 9806         	ldr	r0, [sp, #24]
 8001458: 9019         	str	r0, [sp, #100]
 800145a: 9918         	ldr	r1, [sp, #96]
 800145c: 1c48         	adds	r0, r1, #1
 800145e: f04f 0200    	mov.w	r2, #0
 8001462: f142 0200    	adc	r2, r2, #0
 8001466: 4603         	mov	r3, r0
 8001468: 9300         	str	r3, [sp]
 800146a: 4288         	cmp	r0, r1
 800146c: d20c         	bhs	0x8001488 <.text+0x1488> @ imm = #24
 800146e: e7ff         	b	0x8001470 <.text+0x1470> @ imm = #-2
 8001470: f240 0000    	movw	r0, #0
 8001474: f2c2 0000    	movt	r0, #8192
 8001478: f243 03b8    	movw	r3, #12472
 800147c: f6c0 0300    	movt	r3, #2048
 8001480: 2110         	movs	r1, #16
 8001482: 2200         	movs	r2, #0
 8001484: f7fe ff7c    	bl	0x8000380 <.text+0x380> @ imm = #-4360
 8001488: 9800         	ldr	r0, [sp]
 800148a: 9018         	str	r0, [sp, #96]
 800148c: e730         	b	0x80012f0 <.text+0x12f0> @ imm = #-416
 800148e: d4d4         	bmi	0x800143a <.text+0x143a> @ imm = #-88
 8001490: b580         	push	{r7, lr}
 8001492: 466f         	mov	r7, sp
 8001494: b096         	sub	sp, #88
 8001496: 9107         	str	r1, [sp, #28]
 8001498: 9008         	str	r0, [sp, #32]
 800149a: 4618         	mov	r0, r3
 800149c: 9009         	str	r0, [sp, #36]
 800149e: 4610         	mov	r0, r2
 80014a0: 900a         	str	r0, [sp, #40]
 80014a2: 930d         	str	r3, [sp, #52]
 80014a4: 920c         	str	r2, [sp, #48]
 80014a6: 1e58         	subs	r0, r3, #1
 80014a8: 4601         	mov	r1, r0
 80014aa: 910b         	str	r1, [sp, #44]
 80014ac: 2803         	cmp	r0, #3
 80014ae: d80a         	bhi	0x80014c6 <.text+0x14c6> @ imm = #20
 80014b0: 990b         	ldr	r1, [sp, #44]
 80014b2: e8df f001    	tbb	[pc, r1]
 80014b6: 2a14         	cmp	r2, #20
 80014b8: 3e34         	subs	r6, #52
 80014ba: 9805         	ldr	r0, [sp, #20]
 80014bc: 9006         	str	r0, [sp, #24]
 80014be: 8880         	ldrh	r0, [r0, #4]
 80014c0: 2800         	cmp	r0, #0
 80014c2: d040         	beq	0x8001546 <.text+0x1546> @ imm = #128
 80014c4: e047         	b	0x8001556 <.text+0x1556> @ imm = #142
 80014c6: f240 1038    	movw	r0, #312
 80014ca: f2c2 0000    	movt	r0, #8192
 80014ce: f243 03b8    	movw	r3, #12472
 80014d2: f6c0 0300    	movt	r3, #2048
 80014d6: 2118         	movs	r1, #24
 80014d8: 2200         	movs	r2, #0
 80014da: f7fe ff51    	bl	0x8000380 <.text+0x380> @ imm = #-4446
 80014de: 9809         	ldr	r0, [sp, #36]
 80014e0: 4601         	mov	r1, r0
 80014e2: 9104         	str	r1, [sp, #16]
 80014e4: b960         	cbnz	r0, 0x8001500 <.text+0x1500> @ imm = #24
 80014e6: e00c         	b	0x8001502 <.text+0x1502> @ imm = #24
 80014e8: 980a         	ldr	r0, [sp, #40]
 80014ea: 7800         	ldrb	r0, [r0]
 80014ec: 2100         	movs	r1, #0
 80014ee: f8ad 103c    	strh.w	r1, [sp, #60]
 80014f2: f88d 103a    	strb.w	r1, [sp, #58]
 80014f6: f8ad 0038    	strh.w	r0, [sp, #56]
 80014fa: a80e         	add	r0, sp, #56
 80014fc: 9005         	str	r0, [sp, #20]
 80014fe: e7dc         	b	0x80014ba <.text+0x14ba> @ imm = #-72
 8001500: e7f2         	b	0x80014e8 <.text+0x14e8> @ imm = #-28
 8001502: 9904         	ldr	r1, [sp, #16]
 8001504: 2000         	movs	r0, #0
 8001506: f7fe ff53    	bl	0x80003b0 <.text+0x3b0> @ imm = #-4442
 800150a: 9b09         	ldr	r3, [sp, #36]
 800150c: 9a0a         	ldr	r2, [sp, #40]
 800150e: 9907         	ldr	r1, [sp, #28]
 8001510: a810         	add	r0, sp, #64
 8001512: 9003         	str	r0, [sp, #12]
 8001514: f000 fde4    	bl	0x80020e0 <.text+0x20e0> @ imm = #3016
 8001518: 9803         	ldr	r0, [sp, #12]
 800151a: 9005         	str	r0, [sp, #20]
 800151c: e7cd         	b	0x80014ba <.text+0x14ba> @ imm = #-102
 800151e: 9b09         	ldr	r3, [sp, #36]
 8001520: 9a0a         	ldr	r2, [sp, #40]
 8001522: 9907         	ldr	r1, [sp, #28]
 8001524: a812         	add	r0, sp, #72
 8001526: 9002         	str	r0, [sp, #8]
 8001528: f000 fe8c    	bl	0x8002244 <.text+0x2244> @ imm = #3352
 800152c: 9802         	ldr	r0, [sp, #8]
 800152e: 9005         	str	r0, [sp, #20]
 8001530: e7c3         	b	0x80014ba <.text+0x14ba> @ imm = #-122
 8001532: 9b09         	ldr	r3, [sp, #36]
 8001534: 9a0a         	ldr	r2, [sp, #40]
 8001536: 9907         	ldr	r1, [sp, #28]
 8001538: a814         	add	r0, sp, #80
 800153a: 9001         	str	r0, [sp, #4]
 800153c: f000 fedd    	bl	0x80022fa <.text+0x22fa> @ imm = #3514
 8001540: 9801         	ldr	r0, [sp, #4]
 8001542: 9005         	str	r0, [sp, #20]
 8001544: e7b9         	b	0x80014ba <.text+0x14ba> @ imm = #-142
 8001546: 9908         	ldr	r1, [sp, #32]
 8001548: 9a06         	ldr	r2, [sp, #24]
 800154a: 6810         	ldr	r0, [r2]
 800154c: 6852         	ldr	r2, [r2, #4]
 800154e: 604a         	str	r2, [r1, #4]
 8001550: 6008         	str	r0, [r1]
 8001552: b016         	add	sp, #88
 8001554: bd80         	pop	{r7, pc}
 8001556: 9807         	ldr	r0, [sp, #28]
 8001558: f7ff fa49    	bl	0x80009ee <.text+0x9ee> @ imm = #-2926
 800155c: 9a06         	ldr	r2, [sp, #24]
 800155e: 9908         	ldr	r1, [sp, #32]
 8001560: 6810         	ldr	r0, [r2]
 8001562: 6852         	ldr	r2, [r2, #4]
 8001564: 604a         	str	r2, [r1, #4]
 8001566: 6008         	str	r0, [r1]
 8001568: b016         	add	sp, #88
 800156a: bd80         	pop	{r7, pc}
 800156c: b5d0         	push	{r4, r6, r7, lr}
 800156e: af02         	add	r7, sp, #8
 8001570: b0c6         	sub	sp, #280
 8001572: 931b         	str	r3, [sp, #108]
 8001574: 901c         	str	r0, [sp, #112]
 8001576: f8d7 c008    	ldr.w	r12, [r7, #8]
 800157a: f8cd c074    	str.w	r12, [sp, #116]
 800157e: 4694         	mov	r12, r2
 8001580: f8cd c078    	str.w	r12, [sp, #120]
 8001584: 468c         	mov	r12, r1
 8001586: f8cd c07c    	str.w	r12, [sp, #124]
 800158a: 9222         	str	r2, [sp, #136]
 800158c: 9121         	str	r1, [sp, #132]
 800158e: 6800         	ldr	r0, [r0]
 8001590: 9020         	str	r0, [sp, #128]
 8001592: 6898         	ldr	r0, [r3, #8]
 8001594: 68d9         	ldr	r1, [r3, #12]
 8001596: 9124         	str	r1, [sp, #144]
 8001598: 9023         	str	r0, [sp, #140]
 800159a: f89d 0090    	ldrb.w	r0, [sp, #144]
 800159e: b918         	cbnz	r0, 0x80015a8 <.text+0x15a8> @ imm = #6
 80015a0: e00f         	b	0x80015c2 <.text+0x15c2> @ imm = #30
 80015a2: 2000         	movs	r0, #0
 80015a4: b046         	add	sp, #280
 80015a6: bdd0         	pop	{r4, r6, r7, pc}
 80015a8: 9b1e         	ldr	r3, [sp, #120]
 80015aa: 9a1f         	ldr	r2, [sp, #124]
 80015ac: 991c         	ldr	r1, [sp, #112]
 80015ae: 9823         	ldr	r0, [sp, #140]
 80015b0: 901a         	str	r0, [sp, #104]
 80015b2: 9025         	str	r0, [sp, #148]
 80015b4: a826         	add	r0, sp, #152
 80015b6: f7ff fdfb    	bl	0x80011b0 <.text+0x11b0> @ imm = #-1034
 80015ba: f8bd 009c    	ldrh.w	r0, [sp, #156]
 80015be: b1e8         	cbz	r0, 0x80015fc <.text+0x15fc> @ imm = #58
 80015c0: e01f         	b	0x8001602 <.text+0x1602> @ imm = #62
 80015c2: 9b1e         	ldr	r3, [sp, #120]
 80015c4: 9a1f         	ldr	r2, [sp, #124]
 80015c6: 981c         	ldr	r0, [sp, #112]
 80015c8: f8dd c074    	ldr.w	r12, [sp, #116]
 80015cc: f8dc 1000    	ldr.w	r1, [r12]
 80015d0: f8dc c004    	ldr.w	r12, [r12, #4]
 80015d4: f8cd c114    	str.w	r12, [sp, #276]
 80015d8: 9144         	str	r1, [sp, #272]
 80015da: a944         	add	r1, sp, #272
 80015dc: f7ff f985    	bl	0x80008ea <.text+0x8ea> @ imm = #-3318
 80015e0: 4601         	mov	r1, r0
 80015e2: 9119         	str	r1, [sp, #100]
 80015e4: 0400         	lsls	r0, r0, #16
 80015e6: 2800         	cmp	r0, #0
 80015e8: f040 81ce    	bne.w	0x8001988 <.text+0x1988> @ imm = #924
 80015ec: e1d2         	b	0x8001994 <.text+0x1994> @ imm = #932
 80015ee: 991a         	ldr	r1, [sp, #104]
 80015f0: 9817         	ldr	r0, [sp, #92]
 80015f2: 9018         	str	r0, [sp, #96]
 80015f4: 9028         	str	r0, [sp, #160]
 80015f6: 4288         	cmp	r0, r1
 80015f8: d30e         	blo	0x8001618 <.text+0x1618> @ imm = #28
 80015fa: e01a         	b	0x8001632 <.text+0x1632> @ imm = #52
 80015fc: 9826         	ldr	r0, [sp, #152]
 80015fe: 9017         	str	r0, [sp, #92]
 8001600: e7f5         	b	0x80015ee <.text+0x15ee> @ imm = #-22
 8001602: 9920         	ldr	r1, [sp, #128]
 8001604: 9a1c         	ldr	r2, [sp, #112]
 8001606: 981e         	ldr	r0, [sp, #120]
 8001608: 6011         	str	r1, [r2]
 800160a: 9017         	str	r0, [sp, #92]
 800160c: e7ef         	b	0x80015ee <.text+0x15ee> @ imm = #-34
 800160e: 9815         	ldr	r0, [sp, #84]
 8001610: 9016         	str	r0, [sp, #88]
 8001612: 9029         	str	r0, [sp, #164]
 8001614: b388         	cbz	r0, 0x800167a <.text+0x167a> @ imm = #98
 8001616: e044         	b	0x80016a2 <.text+0x16a2> @ imm = #136
 8001618: 981a         	ldr	r0, [sp, #104]
 800161a: 9918         	ldr	r1, [sp, #96]
 800161c: 1a43         	subs	r3, r0, r1
 800161e: f04f 0200    	mov.w	r2, #0
 8001622: f142 0200    	adc	r2, r2, #0
 8001626: f082 0201    	eor	r2, r2, #1
 800162a: 9314         	str	r3, [sp, #80]
 800162c: 4288         	cmp	r0, r1
 800162e: d303         	blo	0x8001638 <.text+0x1638> @ imm = #6
 8001630: e00e         	b	0x8001650 <.text+0x1650> @ imm = #28
 8001632: 2000         	movs	r0, #0
 8001634: 9015         	str	r0, [sp, #84]
 8001636: e7ea         	b	0x800160e <.text+0x160e> @ imm = #-44
 8001638: f240 0000    	movw	r0, #0
 800163c: f2c2 0000    	movt	r0, #8192
 8001640: f243 03b8    	movw	r3, #12472
 8001644: f6c0 0300    	movt	r3, #2048
 8001648: 2110         	movs	r1, #16
 800164a: 2200         	movs	r2, #0
 800164c: f7fe fe98    	bl	0x8000380 <.text+0x380> @ imm = #-4816
 8001650: 9814         	ldr	r0, [sp, #80]
 8001652: 9015         	str	r0, [sp, #84]
 8001654: e7db         	b	0x800160e <.text+0x160e> @ imm = #-74
 8001656: 991c         	ldr	r1, [sp, #112]
 8001658: 981b         	ldr	r0, [sp, #108]
 800165a: f04f 32aa    	mov.w	r2, #2863311530
 800165e: 922c         	str	r2, [sp, #176]
 8001660: 6902         	ldr	r2, [r0, #16]
 8001662: 466b         	mov	r3, sp
 8001664: 2004         	movs	r0, #4
 8001666: 6018         	str	r0, [r3]
 8001668: f1a7 006a    	sub.w	r0, r7, #106
 800166c: ab2c         	add	r3, sp, #176
 800166e: f000 f992    	bl	0x8001996 <.text+0x1996> @ imm = #804
 8001672: f837 0c6a    	ldrh	r0, [r7, #-106]
 8001676: b3c8         	cbz	r0, 0x80016ec <.text+0x16ec> @ imm = #114
 8001678: e043         	b	0x8001702 <.text+0x1702> @ imm = #134
 800167a: 9b1e         	ldr	r3, [sp, #120]
 800167c: 9a1f         	ldr	r2, [sp, #124]
 800167e: 981c         	ldr	r0, [sp, #112]
 8001680: f8dd c074    	ldr.w	r12, [sp, #116]
 8001684: f8dc 1000    	ldr.w	r1, [r12]
 8001688: f8dc c004    	ldr.w	r12, [r12, #4]
 800168c: f8cd c0ac    	str.w	r12, [sp, #172]
 8001690: 912a         	str	r1, [sp, #168]
 8001692: a92a         	add	r1, sp, #168
 8001694: f7ff f929    	bl	0x80008ea <.text+0x8ea> @ imm = #-3502
 8001698: 4601         	mov	r1, r0
 800169a: 9113         	str	r1, [sp, #76]
 800169c: 0400         	lsls	r0, r0, #16
 800169e: b108         	cbz	r0, 0x80016a4 <.text+0x16a4> @ imm = #2
 80016a0: e003         	b	0x80016aa <.text+0x16aa> @ imm = #6
 80016a2: e7d8         	b	0x8001656 <.text+0x1656> @ imm = #-80
 80016a4: 9813         	ldr	r0, [sp, #76]
 80016a6: b046         	add	sp, #280
 80016a8: bdd0         	pop	{r4, r6, r7, pc}
 80016aa: 981c         	ldr	r0, [sp, #112]
 80016ac: f7ff f99f    	bl	0x80009ee <.text+0x9ee> @ imm = #-3266
 80016b0: 9813         	ldr	r0, [sp, #76]
 80016b2: b046         	add	sp, #280
 80016b4: bdd0         	pop	{r4, r6, r7, pc}
 80016b6: 981b         	ldr	r0, [sp, #108]
 80016b8: 9a0f         	ldr	r2, [sp, #60]
 80016ba: 990e         	ldr	r1, [sp, #56]
 80016bc: 9110         	str	r1, [sp, #64]
 80016be: 9211         	str	r2, [sp, #68]
 80016c0: 9232         	str	r2, [sp, #200]
 80016c2: 9133         	str	r1, [sp, #204]
 80016c4: 7d01         	ldrb	r1, [r0, #20]
 80016c6: f001 0003    	and	r0, r1, #3
 80016ca: 9112         	str	r1, [sp, #72]
 80016cc: 2802         	cmp	r0, #2
 80016ce: f000 8121    	beq.w	0x8001914 <.text+0x1914> @ imm = #578
 80016d2: e7ff         	b	0x80016d4 <.text+0x16d4> @ imm = #-2
 80016d4: 9812         	ldr	r0, [sp, #72]
 80016d6: 0780         	lsls	r0, r0, #30
 80016d8: 2800         	cmp	r0, #0
 80016da: d065         	beq	0x80017a8 <.text+0x17a8> @ imm = #202
 80016dc: e7ff         	b	0x80016de <.text+0x16de> @ imm = #-2
 80016de: 9812         	ldr	r0, [sp, #72]
 80016e0: f000 0003    	and	r0, r0, #3
 80016e4: 2801         	cmp	r0, #1
 80016e6: f000 8099    	beq.w	0x800181c <.text+0x181c> @ imm = #306
 80016ea: e051         	b	0x8001790 <.text+0x1790> @ imm = #162
 80016ec: f817 0c68    	ldrb	r0, [r7, #-104]
 80016f0: f807 0c65    	strb	r0, [r7, #-101]
 80016f4: a92c         	add	r1, sp, #176
 80016f6: 910c         	str	r1, [sp, #48]
 80016f8: 4601         	mov	r1, r0
 80016fa: 910d         	str	r1, [sp, #52]
 80016fc: 2800         	cmp	r0, #0
 80016fe: d20b         	bhs	0x8001718 <.text+0x1718> @ imm = #22
 8001700: e00b         	b	0x800171a <.text+0x171a> @ imm = #22
 8001702: f837 0c6a    	ldrh	r0, [r7, #-106]
 8001706: 380a         	subs	r0, #10
 8001708: b280         	uxth	r0, r0
 800170a: 2802         	cmp	r0, #2
 800170c: d32c         	blo	0x8001768 <.text+0x1768> @ imm = #88
 800170e: e01f         	b	0x8001750 <.text+0x1750> @ imm = #62
 8001710: 980d         	ldr	r0, [sp, #52]
 8001712: 2805         	cmp	r0, #5
 8001714: d309         	blo	0x800172a <.text+0x172a> @ imm = #18
 8001716: e009         	b	0x800172c <.text+0x172c> @ imm = #18
 8001718: e7fa         	b	0x8001710 <.text+0x1710> @ imm = #-12
 800171a: 990d         	ldr	r1, [sp, #52]
 800171c: 2000         	movs	r0, #0
 800171e: f7fe fe36    	bl	0x800038e <.text+0x38e> @ imm = #-5012
 8001722: 980d         	ldr	r0, [sp, #52]
 8001724: 2800         	cmp	r0, #0
 8001726: d20e         	bhs	0x8001746 <.text+0x1746> @ imm = #28
 8001728: e00e         	b	0x8001748 <.text+0x1748> @ imm = #28
 800172a: e7fa         	b	0x8001722 <.text+0x1722> @ imm = #-12
 800172c: 980d         	ldr	r0, [sp, #52]
 800172e: 2104         	movs	r1, #4
 8001730: f7fe fe3e    	bl	0x80003b0 <.text+0x3b0> @ imm = #-4996
 8001734: 980c         	ldr	r0, [sp, #48]
 8001736: 990d         	ldr	r1, [sp, #52]
 8001738: 9130         	str	r1, [sp, #192]
 800173a: 902f         	str	r0, [sp, #188]
 800173c: 992f         	ldr	r1, [sp, #188]
 800173e: 9830         	ldr	r0, [sp, #192]
 8001740: 910f         	str	r1, [sp, #60]
 8001742: 900e         	str	r0, [sp, #56]
 8001744: e7b7         	b	0x80016b6 <.text+0x16b6> @ imm = #-146
 8001746: e7f5         	b	0x8001734 <.text+0x1734> @ imm = #-22
 8001748: 990d         	ldr	r1, [sp, #52]
 800174a: 2000         	movs	r0, #0
 800174c: f7fe fe30    	bl	0x80003b0 <.text+0x3b0> @ imm = #-5024
 8001750: f240 007f    	movw	r0, #127
 8001754: f2c2 0000    	movt	r0, #8192
 8001758: f243 03b8    	movw	r3, #12472
 800175c: f6c0 0300    	movt	r3, #2048
 8001760: 2117         	movs	r1, #23
 8001762: 2200         	movs	r2, #0
 8001764: f7fe fe0c    	bl	0x8000380 <.text+0x380> @ imm = #-5096
 8001768: 2000         	movs	r0, #0
 800176a: f88d 00c6    	strb.w	r0, [sp, #198]
 800176e: f64f 70fd    	movw	r0, #65533
 8001772: f8ad 00c4    	strh.w	r0, [sp, #196]
 8001776: e7ff         	b	0x8001778 <.text+0x1778> @ imm = #-2
 8001778: 9820         	ldr	r0, [sp, #128]
 800177a: 991c         	ldr	r1, [sp, #112]
 800177c: 6008         	str	r0, [r1]
 800177e: 2003         	movs	r0, #3
 8001780: f240 1108    	movw	r1, #264
 8001784: f2c2 0100    	movt	r1, #8192
 8001788: 910f         	str	r1, [sp, #60]
 800178a: 900e         	str	r0, [sp, #56]
 800178c: e793         	b	0x80016b6 <.text+0x16b6> @ imm = #-218
 800178e: e708         	b	0x80015a2 <.text+0x15a2> @ imm = #-496
 8001790: f240 007f    	movw	r0, #127
 8001794: f2c2 0000    	movt	r0, #8192
 8001798: f243 03b8    	movw	r3, #12472
 800179c: f6c0 0300    	movt	r3, #2048
 80017a0: 2117         	movs	r1, #23
 80017a2: 2200         	movs	r2, #0
 80017a4: f7fe fdec    	bl	0x8000380 <.text+0x380> @ imm = #-5160
 80017a8: 9b1e         	ldr	r3, [sp, #120]
 80017aa: 9a1f         	ldr	r2, [sp, #124]
 80017ac: 981c         	ldr	r0, [sp, #112]
 80017ae: f8dd c074    	ldr.w	r12, [sp, #116]
 80017b2: f8dc 1000    	ldr.w	r1, [r12]
 80017b6: f8dc c004    	ldr.w	r12, [r12, #4]
 80017ba: f8cd c0d4    	str.w	r12, [sp, #212]
 80017be: 9134         	str	r1, [sp, #208]
 80017c0: a934         	add	r1, sp, #208
 80017c2: f7ff f892    	bl	0x80008ea <.text+0x8ea> @ imm = #-3804
 80017c6: 4601         	mov	r1, r0
 80017c8: 910b         	str	r1, [sp, #44]
 80017ca: 0400         	lsls	r0, r0, #16
 80017cc: b130         	cbz	r0, 0x80017dc <.text+0x17dc> @ imm = #12
 80017ce: e7ff         	b	0x80017d0 <.text+0x17d0> @ imm = #-2
 80017d0: 981c         	ldr	r0, [sp, #112]
 80017d2: f7ff f90c    	bl	0x80009ee <.text+0x9ee> @ imm = #-3560
 80017d6: 980b         	ldr	r0, [sp, #44]
 80017d8: b046         	add	sp, #280
 80017da: bdd0         	pop	{r4, r6, r7, pc}
 80017dc: 9b10         	ldr	r3, [sp, #64]
 80017de: 9a11         	ldr	r2, [sp, #68]
 80017e0: 981c         	ldr	r0, [sp, #112]
 80017e2: 9916         	ldr	r1, [sp, #88]
 80017e4: f8dd e074    	ldr.w	lr, [sp, #116]
 80017e8: f8de c000    	ldr.w	r12, [lr]
 80017ec: f8de e004    	ldr.w	lr, [lr, #4]
 80017f0: f8cd e0dc    	str.w	lr, [sp, #220]
 80017f4: f8cd c0d8    	str.w	r12, [sp, #216]
 80017f8: 46ec         	mov	r12, sp
 80017fa: f8cc 1000    	str.w	r1, [r12]
 80017fe: a936         	add	r1, sp, #216
 8001800: f000 f8f1    	bl	0x80019e6 <.text+0x19e6> @ imm = #482
 8001804: 4601         	mov	r1, r0
 8001806: 910a         	str	r1, [sp, #40]
 8001808: 0400         	lsls	r0, r0, #16
 800180a: b130         	cbz	r0, 0x800181a <.text+0x181a> @ imm = #12
 800180c: e7ff         	b	0x800180e <.text+0x180e> @ imm = #-2
 800180e: 981c         	ldr	r0, [sp, #112]
 8001810: f7ff f8ed    	bl	0x80009ee <.text+0x9ee> @ imm = #-3622
 8001814: 980a         	ldr	r0, [sp, #40]
 8001816: b046         	add	sp, #280
 8001818: bdd0         	pop	{r4, r6, r7, pc}
 800181a: e7b8         	b	0x800178e <.text+0x178e> @ imm = #-144
 800181c: 9916         	ldr	r1, [sp, #88]
 800181e: 0848         	lsrs	r0, r1, #1
 8001820: 4602         	mov	r2, r0
 8001822: 9208         	str	r2, [sp, #32]
 8001824: 9038         	str	r0, [sp, #224]
 8001826: 1c48         	adds	r0, r1, #1
 8001828: f04f 0200    	mov.w	r2, #0
 800182c: f142 0200    	adc	r2, r2, #0
 8001830: 4603         	mov	r3, r0
 8001832: 9309         	str	r3, [sp, #36]
 8001834: 4288         	cmp	r0, r1
 8001836: d20c         	bhs	0x8001852 <.text+0x1852> @ imm = #24
 8001838: e7ff         	b	0x800183a <.text+0x183a> @ imm = #-2
 800183a: f240 0000    	movw	r0, #0
 800183e: f2c2 0000    	movt	r0, #8192
 8001842: f243 03b8    	movw	r3, #12472
 8001846: f6c0 0300    	movt	r3, #2048
 800184a: 2110         	movs	r1, #16
 800184c: 2200         	movs	r2, #0
 800184e: f7fe fd97    	bl	0x8000380 <.text+0x380> @ imm = #-5330
 8001852: 9b10         	ldr	r3, [sp, #64]
 8001854: 9a11         	ldr	r2, [sp, #68]
 8001856: 981c         	ldr	r0, [sp, #112]
 8001858: 9908         	ldr	r1, [sp, #32]
 800185a: f8dd e074    	ldr.w	lr, [sp, #116]
 800185e: f8dd c024    	ldr.w	r12, [sp, #36]
 8001862: ea4f 0c5c    	lsr.w	r12, r12, #1
 8001866: 4664         	mov	r4, r12
 8001868: 9406         	str	r4, [sp, #24]
 800186a: f8cd c0e4    	str.w	r12, [sp, #228]
 800186e: f8de c000    	ldr.w	r12, [lr]
 8001872: f8de e004    	ldr.w	lr, [lr, #4]
 8001876: f8cd e0ec    	str.w	lr, [sp, #236]
 800187a: f8cd c0e8    	str.w	r12, [sp, #232]
 800187e: 46ec         	mov	r12, sp
 8001880: f8cc 1000    	str.w	r1, [r12]
 8001884: a93a         	add	r1, sp, #232
 8001886: f000 f8ae    	bl	0x80019e6 <.text+0x19e6> @ imm = #348
 800188a: 4601         	mov	r1, r0
 800188c: 9107         	str	r1, [sp, #28]
 800188e: 0400         	lsls	r0, r0, #16
 8001890: b130         	cbz	r0, 0x80018a0 <.text+0x18a0> @ imm = #12
 8001892: e7ff         	b	0x8001894 <.text+0x1894> @ imm = #-2
 8001894: 981c         	ldr	r0, [sp, #112]
 8001896: f7ff f8aa    	bl	0x80009ee <.text+0x9ee> @ imm = #-3756
 800189a: 9807         	ldr	r0, [sp, #28]
 800189c: b046         	add	sp, #280
 800189e: bdd0         	pop	{r4, r6, r7, pc}
 80018a0: 9b1e         	ldr	r3, [sp, #120]
 80018a2: 9a1f         	ldr	r2, [sp, #124]
 80018a4: 981c         	ldr	r0, [sp, #112]
 80018a6: f8dd c074    	ldr.w	r12, [sp, #116]
 80018aa: f8dc 1000    	ldr.w	r1, [r12]
 80018ae: f8dc c004    	ldr.w	r12, [r12, #4]
 80018b2: f8cd c0f4    	str.w	r12, [sp, #244]
 80018b6: 913c         	str	r1, [sp, #240]
 80018b8: a93c         	add	r1, sp, #240
 80018ba: f7ff f816    	bl	0x80008ea <.text+0x8ea> @ imm = #-4052
 80018be: 4601         	mov	r1, r0
 80018c0: 9105         	str	r1, [sp, #20]
 80018c2: 0400         	lsls	r0, r0, #16
 80018c4: b130         	cbz	r0, 0x80018d4 <.text+0x18d4> @ imm = #12
 80018c6: e7ff         	b	0x80018c8 <.text+0x18c8> @ imm = #-2
 80018c8: 981c         	ldr	r0, [sp, #112]
 80018ca: f7ff f890    	bl	0x80009ee <.text+0x9ee> @ imm = #-3808
 80018ce: 9805         	ldr	r0, [sp, #20]
 80018d0: b046         	add	sp, #280
 80018d2: bdd0         	pop	{r4, r6, r7, pc}
 80018d4: 9b10         	ldr	r3, [sp, #64]
 80018d6: 9a11         	ldr	r2, [sp, #68]
 80018d8: 981c         	ldr	r0, [sp, #112]
 80018da: 9906         	ldr	r1, [sp, #24]
 80018dc: f8dd e074    	ldr.w	lr, [sp, #116]
 80018e0: f8de c000    	ldr.w	r12, [lr]
 80018e4: f8de e004    	ldr.w	lr, [lr, #4]
 80018e8: f8cd e0fc    	str.w	lr, [sp, #252]
 80018ec: f8cd c0f8    	str.w	r12, [sp, #248]
 80018f0: 46ec         	mov	r12, sp
 80018f2: f8cc 1000    	str.w	r1, [r12]
 80018f6: a93e         	add	r1, sp, #248
 80018f8: f000 f875    	bl	0x80019e6 <.text+0x19e6> @ imm = #234
 80018fc: 4601         	mov	r1, r0
 80018fe: 9104         	str	r1, [sp, #16]
 8001900: 0400         	lsls	r0, r0, #16
 8001902: b130         	cbz	r0, 0x8001912 <.text+0x1912> @ imm = #12
 8001904: e7ff         	b	0x8001906 <.text+0x1906> @ imm = #-2
 8001906: 981c         	ldr	r0, [sp, #112]
 8001908: f7ff f871    	bl	0x80009ee <.text+0x9ee> @ imm = #-3870
 800190c: 9804         	ldr	r0, [sp, #16]
 800190e: b046         	add	sp, #280
 8001910: bdd0         	pop	{r4, r6, r7, pc}
 8001912: e73c         	b	0x800178e <.text+0x178e> @ imm = #-392
 8001914: 9b10         	ldr	r3, [sp, #64]
 8001916: 9a11         	ldr	r2, [sp, #68]
 8001918: 981c         	ldr	r0, [sp, #112]
 800191a: 9916         	ldr	r1, [sp, #88]
 800191c: f8dd e074    	ldr.w	lr, [sp, #116]
 8001920: f8de c000    	ldr.w	r12, [lr]
 8001924: f8de e004    	ldr.w	lr, [lr, #4]
 8001928: f8cd e104    	str.w	lr, [sp, #260]
 800192c: f8cd c100    	str.w	r12, [sp, #256]
 8001930: 46ec         	mov	r12, sp
 8001932: f8cc 1000    	str.w	r1, [r12]
 8001936: a940         	add	r1, sp, #256
 8001938: f000 f855    	bl	0x80019e6 <.text+0x19e6> @ imm = #170
 800193c: 4601         	mov	r1, r0
 800193e: 9103         	str	r1, [sp, #12]
 8001940: 0400         	lsls	r0, r0, #16
 8001942: b130         	cbz	r0, 0x8001952 <.text+0x1952> @ imm = #12
 8001944: e7ff         	b	0x8001946 <.text+0x1946> @ imm = #-2
 8001946: 981c         	ldr	r0, [sp, #112]
 8001948: f7ff f851    	bl	0x80009ee <.text+0x9ee> @ imm = #-3934
 800194c: 9803         	ldr	r0, [sp, #12]
 800194e: b046         	add	sp, #280
 8001950: bdd0         	pop	{r4, r6, r7, pc}
 8001952: 9b1e         	ldr	r3, [sp, #120]
 8001954: 9a1f         	ldr	r2, [sp, #124]
 8001956: 981c         	ldr	r0, [sp, #112]
 8001958: f8dd c074    	ldr.w	r12, [sp, #116]
 800195c: f8dc 1000    	ldr.w	r1, [r12]
 8001960: f8dc c004    	ldr.w	r12, [r12, #4]
 8001964: f8cd c10c    	str.w	r12, [sp, #268]
 8001968: 9142         	str	r1, [sp, #264]
 800196a: a942         	add	r1, sp, #264
 800196c: f7fe ffbd    	bl	0x80008ea <.text+0x8ea> @ imm = #-4230
 8001970: 4601         	mov	r1, r0
 8001972: 9102         	str	r1, [sp, #8]
 8001974: 0400         	lsls	r0, r0, #16
 8001976: b130         	cbz	r0, 0x8001986 <.text+0x1986> @ imm = #12
 8001978: e7ff         	b	0x800197a <.text+0x197a> @ imm = #-2
 800197a: 981c         	ldr	r0, [sp, #112]
 800197c: f7ff f837    	bl	0x80009ee <.text+0x9ee> @ imm = #-3986
 8001980: 9802         	ldr	r0, [sp, #8]
 8001982: b046         	add	sp, #280
 8001984: bdd0         	pop	{r4, r6, r7, pc}
 8001986: e702         	b	0x800178e <.text+0x178e> @ imm = #-508
 8001988: 981c         	ldr	r0, [sp, #112]
 800198a: f7ff f830    	bl	0x80009ee <.text+0x9ee> @ imm = #-4000
 800198e: 9819         	ldr	r0, [sp, #100]
 8001990: b046         	add	sp, #280
 8001992: bdd0         	pop	{r4, r6, r7, pc}
 8001994: e605         	b	0x80015a2 <.text+0x15a2> @ imm = #-1014
 8001996: b580         	push	{r7, lr}
 8001998: 466f         	mov	r7, sp
 800199a: b088         	sub	sp, #32
 800199c: 9102         	str	r1, [sp, #8]
 800199e: 9003         	str	r0, [sp, #12]
 80019a0: 68b8         	ldr	r0, [r7, #8]
 80019a2: f8ad 2010    	strh.w	r2, [sp, #16]
 80019a6: 4694         	mov	r12, r2
 80019a8: f36f 5c5f    	bfc	r12, #21, #11
 80019ac: ea4f 4c1c    	lsr.w	r12, r12, #16
 80019b0: f88d c012    	strb.w	r12, [sp, #18]
 80019b4: 9006         	str	r0, [sp, #24]
 80019b6: 9305         	str	r3, [sp, #20]
 80019b8: 46ec         	mov	r12, sp
 80019ba: f8cc 0000    	str.w	r0, [r12]
 80019be: a807         	add	r0, sp, #28
 80019c0: f000 fe66    	bl	0x8002690 <.text+0x2690> @ imm = #3276
 80019c4: f8bd 001c    	ldrh.w	r0, [sp, #28]
 80019c8: b928         	cbnz	r0, 0x80019d6 <.text+0x19d6> @ imm = #10
 80019ca: e7ff         	b	0x80019cc <.text+0x19cc> @ imm = #-2
 80019cc: 9903         	ldr	r1, [sp, #12]
 80019ce: 9807         	ldr	r0, [sp, #28]
 80019d0: 6008         	str	r0, [r1]
 80019d2: b008         	add	sp, #32
 80019d4: bd80         	pop	{r7, pc}
 80019d6: 9802         	ldr	r0, [sp, #8]
 80019d8: f7ff f809    	bl	0x80009ee <.text+0x9ee> @ imm = #-4078
 80019dc: 9903         	ldr	r1, [sp, #12]
 80019de: 9807         	ldr	r0, [sp, #28]
 80019e0: 6008         	str	r0, [r1]
 80019e2: b008         	add	sp, #32
 80019e4: bd80         	pop	{r7, pc}
 80019e6: b580         	push	{r7, lr}
 80019e8: 466f         	mov	r7, sp
 80019ea: b08c         	sub	sp, #48
 80019ec: 9102         	str	r1, [sp, #8]
 80019ee: 9003         	str	r0, [sp, #12]
 80019f0: 68b8         	ldr	r0, [r7, #8]
 80019f2: 9004         	str	r0, [sp, #16]
 80019f4: 4618         	mov	r0, r3
 80019f6: 9005         	str	r0, [sp, #20]
 80019f8: 4610         	mov	r0, r2
 80019fa: 9006         	str	r0, [sp, #24]
 80019fc: 9308         	str	r3, [sp, #32]
 80019fe: 9207         	str	r2, [sp, #28]
 8001a00: 2000         	movs	r0, #0
 8001a02: 9009         	str	r0, [sp, #36]
 8001a04: e002         	b	0x8001a0c <.text+0x1a0c> @ imm = #4
 8001a06: 2000         	movs	r0, #0
 8001a08: b00c         	add	sp, #48
 8001a0a: bd80         	pop	{r7, pc}
 8001a0c: 9904         	ldr	r1, [sp, #16]
 8001a0e: 9809         	ldr	r0, [sp, #36]
 8001a10: 4288         	cmp	r0, r1
 8001a12: d301         	blo	0x8001a18 <.text+0x1a18> @ imm = #2
 8001a14: e014         	b	0x8001a40 <.text+0x1a40> @ imm = #40
 8001a16: e7f9         	b	0x8001a0c <.text+0x1a0c> @ imm = #-14
 8001a18: 9b05         	ldr	r3, [sp, #20]
 8001a1a: 9a06         	ldr	r2, [sp, #24]
 8001a1c: 9803         	ldr	r0, [sp, #12]
 8001a1e: f8dd c008    	ldr.w	r12, [sp, #8]
 8001a22: f8dc 1000    	ldr.w	r1, [r12]
 8001a26: f8dc c004    	ldr.w	r12, [r12, #4]
 8001a2a: f8cd c02c    	str.w	r12, [sp, #44]
 8001a2e: 910a         	str	r1, [sp, #40]
 8001a30: a90a         	add	r1, sp, #40
 8001a32: f7fe ff5a    	bl	0x80008ea <.text+0x8ea> @ imm = #-4428
 8001a36: 4601         	mov	r1, r0
 8001a38: 9101         	str	r1, [sp, #4]
 8001a3a: 0400         	lsls	r0, r0, #16
 8001a3c: b908         	cbnz	r0, 0x8001a42 <.text+0x1a42> @ imm = #2
 8001a3e: e006         	b	0x8001a4e <.text+0x1a4e> @ imm = #12
 8001a40: e7e1         	b	0x8001a06 <.text+0x1a06> @ imm = #-62
 8001a42: 9803         	ldr	r0, [sp, #12]
 8001a44: f7fe ffd3    	bl	0x80009ee <.text+0x9ee> @ imm = #-4186
 8001a48: 9801         	ldr	r0, [sp, #4]
 8001a4a: b00c         	add	sp, #48
 8001a4c: bd80         	pop	{r7, pc}
 8001a4e: 9909         	ldr	r1, [sp, #36]
 8001a50: 1c48         	adds	r0, r1, #1
 8001a52: f04f 0200    	mov.w	r2, #0
 8001a56: f142 0200    	adc	r2, r2, #0
 8001a5a: 4603         	mov	r3, r0
 8001a5c: 9300         	str	r3, [sp]
 8001a5e: 4288         	cmp	r0, r1
 8001a60: d20c         	bhs	0x8001a7c <.text+0x1a7c> @ imm = #24
 8001a62: e7ff         	b	0x8001a64 <.text+0x1a64> @ imm = #-2
 8001a64: f240 0000    	movw	r0, #0
 8001a68: f2c2 0000    	movt	r0, #8192
 8001a6c: f243 03b8    	movw	r3, #12472
 8001a70: f6c0 0300    	movt	r3, #2048
 8001a74: 2110         	movs	r1, #16
 8001a76: 2200         	movs	r2, #0
 8001a78: f7fe fc82    	bl	0x8000380 <.text+0x380> @ imm = #-5884
 8001a7c: 9800         	ldr	r0, [sp]
 8001a7e: 9009         	str	r0, [sp, #36]
 8001a80: e7c9         	b	0x8001a16 <.text+0x1a16> @ imm = #-110
 8001a82: b580         	push	{r7, lr}
 8001a84: 466f         	mov	r7, sp
 8001a86: b0b6         	sub	sp, #216
 8001a88: 911f         	str	r1, [sp, #124]
 8001a8a: 4601         	mov	r1, r0
 8001a8c: 981f         	ldr	r0, [sp, #124]
 8001a8e: 911a         	str	r1, [sp, #104]
 8001a90: b2d1         	uxtb	r1, r2
 8001a92: 9121         	str	r1, [sp, #132]
 8001a94: f8d7 c00c    	ldr.w	r12, [r7, #12]
 8001a98: f8cd c06c    	str.w	r12, [sp, #108]
 8001a9c: f8d7 c008    	ldr.w	r12, [r7, #8]
 8001aa0: f8cd c070    	str.w	r12, [sp, #112]
 8001aa4: 469c         	mov	r12, r3
 8001aa6: f8cd c074    	str.w	r12, [sp, #116]
 8001aaa: 4694         	mov	r12, r2
 8001aac: f8cd c078    	str.w	r12, [sp, #120]
 8001ab0: 9022         	str	r0, [sp, #136]
 8001ab2: f807 2c4a    	strb	r2, [r7, #-74]
 8001ab6: f003 0001    	and	r0, r3, #1
 8001aba: f807 0c49    	strb	r0, [r7, #-73]
 8001abe: 2000         	movs	r0, #0
 8001ac0: 2901         	cmp	r1, #1
 8001ac2: bf88         	it	hi
 8001ac4: 2001         	movhi	r0, #1
 8001ac6: f000 f9ba    	bl	0x8001e3e <.text+0x1e3e> @ imm = #884
 8001aca: 991f         	ldr	r1, [sp, #124]
 8001acc: 9124         	str	r1, [sp, #144]
 8001ace: 2020         	movs	r0, #32
 8001ad0: f807 0c41    	strb	r0, [r7, #-65]
 8001ad4: 9126         	str	r1, [sp, #152]
 8001ad6: f1a7 0039    	sub.w	r0, r7, #57
 8001ada: 2121         	movs	r1, #33
 8001adc: 9120         	str	r1, [sp, #128]
 8001ade: 22aa         	movs	r2, #170
 8001ae0: f001 faaf    	bl	0x8003042 <.text+0x3042> @ imm = #5470
 8001ae4: 9a1f         	ldr	r2, [sp, #124]
 8001ae6: 9920         	ldr	r1, [sp, #128]
 8001ae8: 9821         	ldr	r0, [sp, #132]
 8001aea: 9230         	str	r2, [sp, #192]
 8001aec: 9131         	str	r1, [sp, #196]
 8001aee: 280a         	cmp	r0, #10
 8001af0: d00a         	beq	0x8001b08 <.text+0x1b08> @ imm = #20
 8001af2: e00a         	b	0x8001b0a <.text+0x1b0a> @ imm = #20
 8001af4: 9831         	ldr	r0, [sp, #196]
 8001af6: 9018         	str	r0, [sp, #96]
 8001af8: f1a7 0139    	sub.w	r1, r7, #57
 8001afc: 4401         	add	r1, r0
 8001afe: 9119         	str	r1, [sp, #100]
 8001b00: 2822         	cmp	r0, #34
 8001b02: f0c0 816c    	blo.w	0x8001dde <.text+0x1dde> @ imm = #728
 8001b06: e16b         	b	0x8001de0 <.text+0x1de0> @ imm = #726
 8001b08: e004         	b	0x8001b14 <.text+0x1b14> @ imm = #8
 8001b0a: e0de         	b	0x8001cca <.text+0x1cca> @ imm = #444
 8001b0c: 9830         	ldr	r0, [sp, #192]
 8001b0e: 280a         	cmp	r0, #10
 8001b10: d34b         	blo	0x8001baa <.text+0x1baa> @ imm = #150
 8001b12: e056         	b	0x8001bc2 <.text+0x1bc2> @ imm = #172
 8001b14: 9830         	ldr	r0, [sp, #192]
 8001b16: 2863         	cmp	r0, #99
 8001b18: d801         	bhi	0x8001b1e <.text+0x1b1e> @ imm = #2
 8001b1a: e00c         	b	0x8001b36 <.text+0x1b36> @ imm = #24
 8001b1c: e7fa         	b	0x8001b14 <.text+0x1b14> @ imm = #-12
 8001b1e: 9831         	ldr	r0, [sp, #196]
 8001b20: 1e82         	subs	r2, r0, #2
 8001b22: f04f 0100    	mov.w	r1, #0
 8001b26: f141 0100    	adc	r1, r1, #0
 8001b2a: f081 0101    	eor	r1, r1, #1
 8001b2e: 9217         	str	r2, [sp, #92]
 8001b30: 2802         	cmp	r0, #2
 8001b32: d301         	blo	0x8001b38 <.text+0x1b38> @ imm = #2
 8001b34: e00c         	b	0x8001b50 <.text+0x1b50> @ imm = #24
 8001b36: e7e9         	b	0x8001b0c <.text+0x1b0c> @ imm = #-46
 8001b38: f240 0000    	movw	r0, #0
 8001b3c: f2c2 0000    	movt	r0, #8192
 8001b40: f243 03b8    	movw	r3, #12472
 8001b44: f6c0 0300    	movt	r3, #2048
 8001b48: 2110         	movs	r1, #16
 8001b4a: 2200         	movs	r2, #0
 8001b4c: f7fe fc18    	bl	0x8000380 <.text+0x380> @ imm = #-6096
 8001b50: 9817         	ldr	r0, [sp, #92]
 8001b52: 9031         	str	r0, [sp, #196]
 8001b54: 9831         	ldr	r0, [sp, #196]
 8001b56: f1a7 0139    	sub.w	r1, r7, #57
 8001b5a: 4401         	add	r1, r0
 8001b5c: 9115         	str	r1, [sp, #84]
 8001b5e: 3002         	adds	r0, #2
 8001b60: 4601         	mov	r1, r0
 8001b62: 9116         	str	r1, [sp, #88]
 8001b64: 2822         	cmp	r0, #34
 8001b66: d31a         	blo	0x8001b9e <.text+0x1b9e> @ imm = #52
 8001b68: e01a         	b	0x8001ba0 <.text+0x1ba0> @ imm = #52
 8001b6a: 9a30         	ldr	r2, [sp, #192]
 8001b6c: f248 501f    	movw	r0, #34079
 8001b70: f2c5 10eb    	movt	r0, #20971
 8001b74: 9014         	str	r0, [sp, #80]
 8001b76: fba2 1000    	umull	r1, r0, r2, r0
 8001b7a: 0940         	lsrs	r0, r0, #5
 8001b7c: 2164         	movs	r1, #100
 8001b7e: fb00 2111    	mls	r1, r0, r1, r2
 8001b82: a832         	add	r0, sp, #200
 8001b84: f000 f974    	bl	0x8001e70 <.text+0x1e70> @ imm = #744
 8001b88: 9a15         	ldr	r2, [sp, #84]
 8001b8a: 9914         	ldr	r1, [sp, #80]
 8001b8c: f8bd 00c8    	ldrh.w	r0, [sp, #200]
 8001b90: 8010         	strh	r0, [r2]
 8001b92: 9830         	ldr	r0, [sp, #192]
 8001b94: fba0 1001    	umull	r1, r0, r0, r1
 8001b98: 0940         	lsrs	r0, r0, #5
 8001b9a: 9030         	str	r0, [sp, #192]
 8001b9c: e7be         	b	0x8001b1c <.text+0x1b1c> @ imm = #-132
 8001b9e: e7e4         	b	0x8001b6a <.text+0x1b6a> @ imm = #-56
 8001ba0: 9816         	ldr	r0, [sp, #88]
 8001ba2: 2121         	movs	r1, #33
 8001ba4: f7fe fc04    	bl	0x80003b0 <.text+0x3b0> @ imm = #-6136
 8001ba8: e7a4         	b	0x8001af4 <.text+0x1af4> @ imm = #-184
 8001baa: 9831         	ldr	r0, [sp, #196]
 8001bac: 1e42         	subs	r2, r0, #1
 8001bae: f04f 0100    	mov.w	r1, #0
 8001bb2: f141 0100    	adc	r1, r1, #0
 8001bb6: f081 0101    	eor	r1, r1, #1
 8001bba: 9213         	str	r2, [sp, #76]
 8001bbc: 2801         	cmp	r0, #1
 8001bbe: d30c         	blo	0x8001bda <.text+0x1bda> @ imm = #24
 8001bc0: e017         	b	0x8001bf2 <.text+0x1bf2> @ imm = #46
 8001bc2: 9831         	ldr	r0, [sp, #196]
 8001bc4: 1e82         	subs	r2, r0, #2
 8001bc6: f04f 0100    	mov.w	r1, #0
 8001bca: f141 0100    	adc	r1, r1, #0
 8001bce: f081 0101    	eor	r1, r1, #1
 8001bd2: 9212         	str	r2, [sp, #72]
 8001bd4: 2802         	cmp	r0, #2
 8001bd6: d34f         	blo	0x8001c78 <.text+0x1c78> @ imm = #158
 8001bd8: e05a         	b	0x8001c90 <.text+0x1c90> @ imm = #180
 8001bda: f240 0000    	movw	r0, #0
 8001bde: f2c2 0000    	movt	r0, #8192
 8001be2: f243 03b8    	movw	r3, #12472
 8001be6: f6c0 0300    	movt	r3, #2048
 8001bea: 2110         	movs	r1, #16
 8001bec: 2200         	movs	r2, #0
 8001bee: f7fe fbc7    	bl	0x8000380 <.text+0x380> @ imm = #-6258
 8001bf2: 9813         	ldr	r0, [sp, #76]
 8001bf4: 9031         	str	r0, [sp, #196]
 8001bf6: 9831         	ldr	r0, [sp, #196]
 8001bf8: 9011         	str	r0, [sp, #68]
 8001bfa: 2821         	cmp	r0, #33
 8001bfc: d30d         	blo	0x8001c1a <.text+0x1c1a> @ imm = #26
 8001bfe: e00d         	b	0x8001c1c <.text+0x1c1c> @ imm = #26
 8001c00: 9911         	ldr	r1, [sp, #68]
 8001c02: f1a7 0039    	sub.w	r0, r7, #57
 8001c06: 4408         	add	r0, r1
 8001c08: 900f         	str	r0, [sp, #60]
 8001c0a: 9830         	ldr	r0, [sp, #192]
 8001c0c: 9010         	str	r0, [sp, #64]
 8001c0e: f1c0 00ff    	rsb.w	r0, r0, #255
 8001c12: f5b0 7f80    	cmp.w	r0, #256
 8001c16: d312         	blo	0x8001c3e <.text+0x1c3e> @ imm = #36
 8001c18: e012         	b	0x8001c40 <.text+0x1c40> @ imm = #36
 8001c1a: e7f1         	b	0x8001c00 <.text+0x1c00> @ imm = #-30
 8001c1c: 9811         	ldr	r0, [sp, #68]
 8001c1e: 2121         	movs	r1, #33
 8001c20: f7fe fbc6    	bl	0x80003b0 <.text+0x3b0> @ imm = #-6260
 8001c24: 9910         	ldr	r1, [sp, #64]
 8001c26: 2030         	movs	r0, #48
 8001c28: fa50 f181    	uxtab	r1, r0, r1
 8001c2c: b2c8         	uxtb	r0, r1
 8001c2e: 1a42         	subs	r2, r0, r1
 8001c30: bf18         	it	ne
 8001c32: 2201         	movne	r2, #1
 8001c34: 460b         	mov	r3, r1
 8001c36: 930e         	str	r3, [sp, #56]
 8001c38: 4288         	cmp	r0, r1
 8001c3a: d10d         	bne	0x8001c58 <.text+0x1c58> @ imm = #26
 8001c3c: e018         	b	0x8001c70 <.text+0x1c70> @ imm = #48
 8001c3e: e7f1         	b	0x8001c24 <.text+0x1c24> @ imm = #-30
 8001c40: f240 100b    	movw	r0, #267
 8001c44: f2c2 0000    	movt	r0, #8192
 8001c48: f243 03b8    	movw	r3, #12472
 8001c4c: f6c0 0300    	movt	r3, #2048
 8001c50: 211b         	movs	r1, #27
 8001c52: 2200         	movs	r2, #0
 8001c54: f7fe fb94    	bl	0x8000380 <.text+0x380> @ imm = #-6360
 8001c58: f240 0000    	movw	r0, #0
 8001c5c: f2c2 0000    	movt	r0, #8192
 8001c60: f243 03b8    	movw	r3, #12472
 8001c64: f6c0 0300    	movt	r3, #2048
 8001c68: 2110         	movs	r1, #16
 8001c6a: 2200         	movs	r2, #0
 8001c6c: f7fe fb88    	bl	0x8000380 <.text+0x380> @ imm = #-6384
 8001c70: 980e         	ldr	r0, [sp, #56]
 8001c72: 990f         	ldr	r1, [sp, #60]
 8001c74: 7008         	strb	r0, [r1]
 8001c76: e797         	b	0x8001ba8 <.text+0x1ba8> @ imm = #-210
 8001c78: f240 0000    	movw	r0, #0
 8001c7c: f2c2 0000    	movt	r0, #8192
 8001c80: f243 03b8    	movw	r3, #12472
 8001c84: f6c0 0300    	movt	r3, #2048
 8001c88: 2110         	movs	r1, #16
 8001c8a: 2200         	movs	r2, #0
 8001c8c: f7fe fb78    	bl	0x8000380 <.text+0x380> @ imm = #-6416
 8001c90: 9812         	ldr	r0, [sp, #72]
 8001c92: 9031         	str	r0, [sp, #196]
 8001c94: 9831         	ldr	r0, [sp, #196]
 8001c96: f1a7 0139    	sub.w	r1, r7, #57
 8001c9a: 4401         	add	r1, r0
 8001c9c: 910c         	str	r1, [sp, #48]
 8001c9e: 3002         	adds	r0, #2
 8001ca0: 4601         	mov	r1, r0
 8001ca2: 910d         	str	r1, [sp, #52]
 8001ca4: 2822         	cmp	r0, #34
 8001ca6: d30a         	blo	0x8001cbe <.text+0x1cbe> @ imm = #20
 8001ca8: e00a         	b	0x8001cc0 <.text+0x1cc0> @ imm = #20
 8001caa: 9930         	ldr	r1, [sp, #192]
 8001cac: f1a7 000e    	sub.w	r0, r7, #14
 8001cb0: f000 f8de    	bl	0x8001e70 <.text+0x1e70> @ imm = #444
 8001cb4: 990c         	ldr	r1, [sp, #48]
 8001cb6: f837 0c0e    	ldrh	r0, [r7, #-14]
 8001cba: 8008         	strh	r0, [r1]
 8001cbc: e774         	b	0x8001ba8 <.text+0x1ba8> @ imm = #-280
 8001cbe: e7f4         	b	0x8001caa <.text+0x1caa> @ imm = #-24
 8001cc0: 980d         	ldr	r0, [sp, #52]
 8001cc2: 2121         	movs	r1, #33
 8001cc4: f7fe fb74    	bl	0x80003b0 <.text+0x3b0> @ imm = #-6424
 8001cc8: e714         	b	0x8001af4 <.text+0x1af4> @ imm = #-472
 8001cca: 981e         	ldr	r0, [sp, #120]
 8001ccc: 9930         	ldr	r1, [sp, #192]
 8001cce: 910a         	str	r1, [sp, #40]
 8001cd0: b2c0         	uxtb	r0, r0
 8001cd2: 4601         	mov	r1, r0
 8001cd4: 910b         	str	r1, [sp, #44]
 8001cd6: b9b0         	cbnz	r0, 0x8001d06 <.text+0x1d06> @ imm = #44
 8001cd8: e016         	b	0x8001d08 <.text+0x1d08> @ imm = #44
 8001cda: e7f6         	b	0x8001cca <.text+0x1cca> @ imm = #-20
 8001cdc: 990b         	ldr	r1, [sp, #44]
 8001cde: 9a0a         	ldr	r2, [sp, #40]
 8001ce0: fbb2 f0f1    	udiv	r0, r2, r1
 8001ce4: fb00 2011    	mls	r0, r0, r1, r2
 8001ce8: 4601         	mov	r1, r0
 8001cea: 9108         	str	r1, [sp, #32]
 8001cec: 9033         	str	r0, [sp, #204]
 8001cee: 9831         	ldr	r0, [sp, #196]
 8001cf0: 1e42         	subs	r2, r0, #1
 8001cf2: f04f 0100    	mov.w	r1, #0
 8001cf6: f141 0100    	adc	r1, r1, #0
 8001cfa: f081 0101    	eor	r1, r1, #1
 8001cfe: 9209         	str	r2, [sp, #36]
 8001d00: 2801         	cmp	r0, #1
 8001d02: d30d         	blo	0x8001d20 <.text+0x1d20> @ imm = #26
 8001d04: e018         	b	0x8001d38 <.text+0x1d38> @ imm = #48
 8001d06: e7e9         	b	0x8001cdc <.text+0x1cdc> @ imm = #-46
 8001d08: f240 1027    	movw	r0, #295
 8001d0c: f2c2 0000    	movt	r0, #8192
 8001d10: f243 03b8    	movw	r3, #12472
 8001d14: f6c0 0300    	movt	r3, #2048
 8001d18: 2110         	movs	r1, #16
 8001d1a: 2200         	movs	r2, #0
 8001d1c: f7fe fb30    	bl	0x8000380 <.text+0x380> @ imm = #-6560
 8001d20: f240 0000    	movw	r0, #0
 8001d24: f2c2 0000    	movt	r0, #8192
 8001d28: f243 03b8    	movw	r3, #12472
 8001d2c: f6c0 0300    	movt	r3, #2048
 8001d30: 2110         	movs	r1, #16
 8001d32: 2200         	movs	r2, #0
 8001d34: f7fe fb24    	bl	0x8000380 <.text+0x380> @ imm = #-6584
 8001d38: 9809         	ldr	r0, [sp, #36]
 8001d3a: 9031         	str	r0, [sp, #196]
 8001d3c: 9831         	ldr	r0, [sp, #196]
 8001d3e: 9007         	str	r0, [sp, #28]
 8001d40: 2821         	cmp	r0, #33
 8001d42: d30c         	blo	0x8001d5e <.text+0x1d5e> @ imm = #24
 8001d44: e00c         	b	0x8001d60 <.text+0x1d60> @ imm = #24
 8001d46: 9808         	ldr	r0, [sp, #32]
 8001d48: 9a07         	ldr	r2, [sp, #28]
 8001d4a: f1a7 0139    	sub.w	r1, r7, #57
 8001d4e: 4411         	add	r1, r2
 8001d50: 9106         	str	r1, [sp, #24]
 8001d52: f1c0 00ff    	rsb.w	r0, r0, #255
 8001d56: f5b0 7f80    	cmp.w	r0, #256
 8001d5a: d314         	blo	0x8001d86 <.text+0x1d86> @ imm = #40
 8001d5c: e014         	b	0x8001d88 <.text+0x1d88> @ imm = #40
 8001d5e: e7f2         	b	0x8001d46 <.text+0x1d46> @ imm = #-28
 8001d60: 9807         	ldr	r0, [sp, #28]
 8001d62: 2121         	movs	r1, #33
 8001d64: f7fe fb24    	bl	0x80003b0 <.text+0x3b0> @ imm = #-6584
 8001d68: 991d         	ldr	r1, [sp, #116]
 8001d6a: 9808         	ldr	r0, [sp, #32]
 8001d6c: f000 f8b3    	bl	0x8001ed6 <.text+0x1ed6> @ imm = #358
 8001d70: 9a06         	ldr	r2, [sp, #24]
 8001d72: 4601         	mov	r1, r0
 8001d74: 981e         	ldr	r0, [sp, #120]
 8001d76: 7011         	strb	r1, [r2]
 8001d78: 9930         	ldr	r1, [sp, #192]
 8001d7a: 9104         	str	r1, [sp, #16]
 8001d7c: b2c0         	uxtb	r0, r0
 8001d7e: 4601         	mov	r1, r0
 8001d80: 9105         	str	r1, [sp, #20]
 8001d82: b9a8         	cbnz	r0, 0x8001db0 <.text+0x1db0> @ imm = #42
 8001d84: e015         	b	0x8001db2 <.text+0x1db2> @ imm = #42
 8001d86: e7ef         	b	0x8001d68 <.text+0x1d68> @ imm = #-34
 8001d88: f240 100b    	movw	r0, #267
 8001d8c: f2c2 0000    	movt	r0, #8192
 8001d90: f243 03b8    	movw	r3, #12472
 8001d94: f6c0 0300    	movt	r3, #2048
 8001d98: 211b         	movs	r1, #27
 8001d9a: 2200         	movs	r2, #0
 8001d9c: f7fe faf0    	bl	0x8000380 <.text+0x380> @ imm = #-6688
 8001da0: 9804         	ldr	r0, [sp, #16]
 8001da2: 9905         	ldr	r1, [sp, #20]
 8001da4: fbb0 f0f1    	udiv	r0, r0, r1
 8001da8: 9030         	str	r0, [sp, #192]
 8001daa: 9830         	ldr	r0, [sp, #192]
 8001dac: b170         	cbz	r0, 0x8001dcc <.text+0x1dcc> @ imm = #28
 8001dae: e00e         	b	0x8001dce <.text+0x1dce> @ imm = #28
 8001db0: e7f6         	b	0x8001da0 <.text+0x1da0> @ imm = #-20
 8001db2: f240 1027    	movw	r0, #295
 8001db6: f2c2 0000    	movt	r0, #8192
 8001dba: f243 03b8    	movw	r3, #12472
 8001dbe: f6c0 0300    	movt	r3, #2048
 8001dc2: 2110         	movs	r1, #16
 8001dc4: 2200         	movs	r2, #0
 8001dc6: f7fe fadb    	bl	0x8000380 <.text+0x380> @ imm = #-6730
 8001dca: e786         	b	0x8001cda <.text+0x1cda> @ imm = #-244
 8001dcc: e77c         	b	0x8001cc8 <.text+0x1cc8> @ imm = #-264
 8001dce: e7fc         	b	0x8001dca <.text+0x1dca> @ imm = #-8
 8001dd0: 9818         	ldr	r0, [sp, #96]
 8001dd2: f1c0 0021    	rsb.w	r0, r0, #33
 8001dd6: 9003         	str	r0, [sp, #12]
 8001dd8: 2001         	movs	r0, #1
 8001dda: b948         	cbnz	r0, 0x8001df0 <.text+0x1df0> @ imm = #18
 8001ddc: e009         	b	0x8001df2 <.text+0x1df2> @ imm = #18
 8001dde: e7f7         	b	0x8001dd0 <.text+0x1dd0> @ imm = #-18
 8001de0: 9818         	ldr	r0, [sp, #96]
 8001de2: 2121         	movs	r1, #33
 8001de4: f7fe fad3    	bl	0x800038e <.text+0x38e> @ imm = #-6746
 8001de8: 9818         	ldr	r0, [sp, #96]
 8001dea: 2822         	cmp	r0, #34
 8001dec: d319         	blo	0x8001e22 <.text+0x1e22> @ imm = #50
 8001dee: e019         	b	0x8001e24 <.text+0x1e24> @ imm = #50
 8001df0: e7fa         	b	0x8001de8 <.text+0x1de8> @ imm = #-12
 8001df2: 2121         	movs	r1, #33
 8001df4: 4608         	mov	r0, r1
 8001df6: f7fe fadb    	bl	0x80003b0 <.text+0x3b0> @ imm = #-6730
 8001dfa: 9b1c         	ldr	r3, [sp, #112]
 8001dfc: 981a         	ldr	r0, [sp, #104]
 8001dfe: f8dd c06c    	ldr.w	r12, [sp, #108]
 8001e02: 9919         	ldr	r1, [sp, #100]
 8001e04: 9a03         	ldr	r2, [sp, #12]
 8001e06: 9235         	str	r2, [sp, #212]
 8001e08: 9134         	str	r1, [sp, #208]
 8001e0a: 9934         	ldr	r1, [sp, #208]
 8001e0c: 9a35         	ldr	r2, [sp, #212]
 8001e0e: 46ee         	mov	lr, sp
 8001e10: f8ce c000    	str.w	r12, [lr]
 8001e14: f7ff fbaa    	bl	0x800156c <.text+0x156c> @ imm = #-2220
 8001e18: 4601         	mov	r1, r0
 8001e1a: 9102         	str	r1, [sp, #8]
 8001e1c: 0400         	lsls	r0, r0, #16
 8001e1e: b128         	cbz	r0, 0x8001e2c <.text+0x1e2c> @ imm = #10
 8001e20: e007         	b	0x8001e32 <.text+0x1e32> @ imm = #14
 8001e22: e7ea         	b	0x8001dfa <.text+0x1dfa> @ imm = #-44
 8001e24: 9818         	ldr	r0, [sp, #96]
 8001e26: 2121         	movs	r1, #33
 8001e28: f7fe fac2    	bl	0x80003b0 <.text+0x3b0> @ imm = #-6780
 8001e2c: 9802         	ldr	r0, [sp, #8]
 8001e2e: b036         	add	sp, #216
 8001e30: bd80         	pop	{r7, pc}
 8001e32: 981a         	ldr	r0, [sp, #104]
 8001e34: f7fe fddb    	bl	0x80009ee <.text+0x9ee> @ imm = #-5194
 8001e38: 9802         	ldr	r0, [sp, #8]
 8001e3a: b036         	add	sp, #216
 8001e3c: bd80         	pop	{r7, pc}
 8001e3e: b580         	push	{r7, lr}
 8001e40: 466f         	mov	r7, sp
 8001e42: b082         	sub	sp, #8
 8001e44: 4601         	mov	r1, r0
 8001e46: f001 0001    	and	r0, r1, #1
 8001e4a: f807 0c01    	strb	r0, [r7, #-1]
 8001e4e: b110         	cbz	r0, 0x8001e56 <.text+0x1e56> @ imm = #4
 8001e50: e00d         	b	0x8001e6e <.text+0x1e6e> @ imm = #26
 8001e52: b002         	add	sp, #8
 8001e54: bd80         	pop	{r7, pc}
 8001e56: f240 1038    	movw	r0, #312
 8001e5a: f2c2 0000    	movt	r0, #8192
 8001e5e: f243 03b8    	movw	r3, #12472
 8001e62: f6c0 0300    	movt	r3, #2048
 8001e66: 2118         	movs	r1, #24
 8001e68: 2200         	movs	r2, #0
 8001e6a: f7fe fa89    	bl	0x8000380 <.text+0x380> @ imm = #-6894
 8001e6e: e7f0         	b	0x8001e52 <.text+0x1e52> @ imm = #-32
 8001e70: b580         	push	{r7, lr}
 8001e72: 466f         	mov	r7, sp
 8001e74: b086         	sub	sp, #24
 8001e76: 9003         	str	r0, [sp, #12]
 8001e78: 9105         	str	r1, [sp, #20]
 8001e7a: 1848         	adds	r0, r1, r1
 8001e7c: f04f 0200    	mov.w	r2, #0
 8001e80: f142 0200    	adc	r2, r2, #0
 8001e84: 4603         	mov	r3, r0
 8001e86: 9304         	str	r3, [sp, #16]
 8001e88: 4288         	cmp	r0, r1
 8001e8a: d20c         	bhs	0x8001ea6 <.text+0x1ea6> @ imm = #24
 8001e8c: e7ff         	b	0x8001e8e <.text+0x1e8e> @ imm = #-2
 8001e8e: f240 0000    	movw	r0, #0
 8001e92: f2c2 0000    	movt	r0, #8192
 8001e96: f243 03b8    	movw	r3, #12472
 8001e9a: f6c0 0300    	movt	r3, #2048
 8001e9e: 2110         	movs	r1, #16
 8001ea0: 2200         	movs	r2, #0
 8001ea2: f7fe fa6d    	bl	0x8000380 <.text+0x380> @ imm = #-6950
 8001ea6: 9804         	ldr	r0, [sp, #16]
 8001ea8: f240 1151    	movw	r1, #337
 8001eac: f2c2 0100    	movt	r1, #8192
 8001eb0: 4401         	add	r1, r0
 8001eb2: 9101         	str	r1, [sp, #4]
 8001eb4: 3002         	adds	r0, #2
 8001eb6: 4601         	mov	r1, r0
 8001eb8: 9102         	str	r1, [sp, #8]
 8001eba: 28ca         	cmp	r0, #202
 8001ebc: d306         	blo	0x8001ecc <.text+0x1ecc> @ imm = #12
 8001ebe: e006         	b	0x8001ece <.text+0x1ece> @ imm = #12
 8001ec0: 9903         	ldr	r1, [sp, #12]
 8001ec2: 9801         	ldr	r0, [sp, #4]
 8001ec4: 8800         	ldrh	r0, [r0]
 8001ec6: 8008         	strh	r0, [r1]
 8001ec8: b006         	add	sp, #24
 8001eca: bd80         	pop	{r7, pc}
 8001ecc: e7f8         	b	0x8001ec0 <.text+0x1ec0> @ imm = #-16
 8001ece: 9802         	ldr	r0, [sp, #8]
 8001ed0: 21c9         	movs	r1, #201
 8001ed2: f7fe fa6d    	bl	0x80003b0 <.text+0x3b0> @ imm = #-6950
 8001ed6: b580         	push	{r7, lr}
 8001ed8: 466f         	mov	r7, sp
 8001eda: b088         	sub	sp, #32
 8001edc: 460a         	mov	r2, r1
 8001ede: 9205         	str	r2, [sp, #20]
 8001ee0: 4602         	mov	r2, r0
 8001ee2: 9206         	str	r2, [sp, #24]
 8001ee4: f807 0c02    	strb	r0, [r7, #-2]
 8001ee8: f001 0001    	and	r0, r1, #1
 8001eec: f807 0c01    	strb	r0, [r7, #-1]
 8001ef0: e002         	b	0x8001ef8 <.text+0x1ef8> @ imm = #4
 8001ef2: 9804         	ldr	r0, [sp, #16]
 8001ef4: b008         	add	sp, #32
 8001ef6: bd80         	pop	{r7, pc}
 8001ef8: 2000         	movs	r0, #0
 8001efa: b990         	cbnz	r0, 0x8001f22 <.text+0x1f22> @ imm = #36
 8001efc: e7ff         	b	0x8001efe <.text+0x1efe> @ imm = #-2
 8001efe: 9806         	ldr	r0, [sp, #24]
 8001f00: b2c0         	uxtb	r0, r0
 8001f02: 2809         	cmp	r0, #9
 8001f04: d80d         	bhi	0x8001f22 <.text+0x1f22> @ imm = #26
 8001f06: e7ff         	b	0x8001f08 <.text+0x1f08> @ imm = #-2
 8001f08: 9906         	ldr	r1, [sp, #24]
 8001f0a: 2030         	movs	r0, #48
 8001f0c: fa50 f181    	uxtab	r1, r0, r1
 8001f10: b2c8         	uxtb	r0, r1
 8001f12: 1a42         	subs	r2, r0, r1
 8001f14: bf18         	it	ne
 8001f16: 2201         	movne	r2, #1
 8001f18: 460b         	mov	r3, r1
 8001f1a: 9303         	str	r3, [sp, #12]
 8001f1c: 4288         	cmp	r0, r1
 8001f1e: d10a         	bne	0x8001f36 <.text+0x1f36> @ imm = #20
 8001f20: e015         	b	0x8001f4e <.text+0x1f4e> @ imm = #42
 8001f22: 9806         	ldr	r0, [sp, #24]
 8001f24: b2c0         	uxtb	r0, r0
 8001f26: 280a         	cmp	r0, #10
 8001f28: d318         	blo	0x8001f5c <.text+0x1f5c> @ imm = #48
 8001f2a: e7ff         	b	0x8001f2c <.text+0x1f2c> @ imm = #-2
 8001f2c: 9806         	ldr	r0, [sp, #24]
 8001f2e: b2c0         	uxtb	r0, r0
 8001f30: 2824         	cmp	r0, #36
 8001f32: d30f         	blo	0x8001f54 <.text+0x1f54> @ imm = #30
 8001f34: e012         	b	0x8001f5c <.text+0x1f5c> @ imm = #36
 8001f36: f240 0000    	movw	r0, #0
 8001f3a: f2c2 0000    	movt	r0, #8192
 8001f3e: f243 03b8    	movw	r3, #12472
 8001f42: f6c0 0300    	movt	r3, #2048
 8001f46: 2110         	movs	r1, #16
 8001f48: 2200         	movs	r2, #0
 8001f4a: f7fe fa19    	bl	0x8000380 <.text+0x380> @ imm = #-7118
 8001f4e: 9803         	ldr	r0, [sp, #12]
 8001f50: 9004         	str	r0, [sp, #16]
 8001f52: e7ce         	b	0x8001ef2 <.text+0x1ef2> @ imm = #-100
 8001f54: 9805         	ldr	r0, [sp, #20]
 8001f56: 07c0         	lsls	r0, r0, #31
 8001f58: b9d0         	cbnz	r0, 0x8001f90 <.text+0x1f90> @ imm = #52
 8001f5a: e01c         	b	0x8001f96 <.text+0x1f96> @ imm = #56
 8001f5c: f240 1038    	movw	r0, #312
 8001f60: f2c2 0000    	movt	r0, #8192
 8001f64: f243 03b8    	movw	r3, #12472
 8001f68: f6c0 0300    	movt	r3, #2048
 8001f6c: 2118         	movs	r1, #24
 8001f6e: 2200         	movs	r2, #0
 8001f70: f7fe fa06    	bl	0x8000380 <.text+0x380> @ imm = #-7156
 8001f74: 9901         	ldr	r1, [sp, #4]
 8001f76: f06f 0009    	mvn	r0, #9
 8001f7a: fa50 f181    	uxtab	r1, r0, r1
 8001f7e: b2c8         	uxtb	r0, r1
 8001f80: 1a42         	subs	r2, r0, r1
 8001f82: bf18         	it	ne
 8001f84: 2201         	movne	r2, #1
 8001f86: 460b         	mov	r3, r1
 8001f88: 9302         	str	r3, [sp, #8]
 8001f8a: 4288         	cmp	r0, r1
 8001f8c: d106         	bne	0x8001f9c <.text+0x1f9c> @ imm = #12
 8001f8e: e011         	b	0x8001fb4 <.text+0x1fb4> @ imm = #34
 8001f90: 2041         	movs	r0, #65
 8001f92: 9001         	str	r0, [sp, #4]
 8001f94: e7ee         	b	0x8001f74 <.text+0x1f74> @ imm = #-36
 8001f96: 2061         	movs	r0, #97
 8001f98: 9001         	str	r0, [sp, #4]
 8001f9a: e7eb         	b	0x8001f74 <.text+0x1f74> @ imm = #-42
 8001f9c: f240 0000    	movw	r0, #0
 8001fa0: f2c2 0000    	movt	r0, #8192
 8001fa4: f243 03b8    	movw	r3, #12472
 8001fa8: f6c0 0300    	movt	r3, #2048
 8001fac: 2110         	movs	r1, #16
 8001fae: 2200         	movs	r2, #0
 8001fb0: f7fe f9e6    	bl	0x8000380 <.text+0x380> @ imm = #-7220
 8001fb4: 9902         	ldr	r1, [sp, #8]
 8001fb6: 9806         	ldr	r0, [sp, #24]
 8001fb8: b2c0         	uxtb	r0, r0
 8001fba: fa50 f181    	uxtab	r1, r0, r1
 8001fbe: b2c8         	uxtb	r0, r1
 8001fc0: 1a42         	subs	r2, r0, r1
 8001fc2: bf18         	it	ne
 8001fc4: 2201         	movne	r2, #1
 8001fc6: 460b         	mov	r3, r1
 8001fc8: 9300         	str	r3, [sp]
 8001fca: 4288         	cmp	r0, r1
 8001fcc: d00c         	beq	0x8001fe8 <.text+0x1fe8> @ imm = #24
 8001fce: e7ff         	b	0x8001fd0 <.text+0x1fd0> @ imm = #-2
 8001fd0: f240 0000    	movw	r0, #0
 8001fd4: f2c2 0000    	movt	r0, #8192
 8001fd8: f243 03b8    	movw	r3, #12472
 8001fdc: f6c0 0300    	movt	r3, #2048
 8001fe0: 2110         	movs	r1, #16
 8001fe2: 2200         	movs	r2, #0
 8001fe4: f7fe f9cc    	bl	0x8000380 <.text+0x380> @ imm = #-7272
 8001fe8: 9800         	ldr	r0, [sp]
 8001fea: 9004         	str	r0, [sp, #16]
 8001fec: e781         	b	0x8001ef2 <.text+0x1ef2> @ imm = #-254
 8001fee: b580         	push	{r7, lr}
 8001ff0: 466f         	mov	r7, sp
 8001ff2: b086         	sub	sp, #24
 8001ff4: 469c         	mov	r12, r3
 8001ff6: 9002         	str	r0, [sp, #8]
 8001ff8: 9104         	str	r1, [sp, #16]
 8001ffa: 9105         	str	r1, [sp, #20]
 8001ffc: 466b         	mov	r3, sp
 8001ffe: f8c3 c004    	str.w	r12, [r3, #4]
 8002002: 601a         	str	r2, [r3]
 8002004: 220a         	movs	r2, #10
 8002006: 2300         	movs	r3, #0
 8002008: f7ff fd3b    	bl	0x8001a82 <.text+0x1a82> @ imm = #-1418
 800200c: 4601         	mov	r1, r0
 800200e: 9103         	str	r1, [sp, #12]
 8002010: 0400         	lsls	r0, r0, #16
 8002012: b918         	cbnz	r0, 0x800201c <.text+0x201c> @ imm = #6
 8002014: e7ff         	b	0x8002016 <.text+0x2016> @ imm = #-2
 8002016: 9803         	ldr	r0, [sp, #12]
 8002018: b006         	add	sp, #24
 800201a: bd80         	pop	{r7, pc}
 800201c: 9802         	ldr	r0, [sp, #8]
 800201e: f7fe fce6    	bl	0x80009ee <.text+0x9ee> @ imm = #-5684
 8002022: 9803         	ldr	r0, [sp, #12]
 8002024: b006         	add	sp, #24
 8002026: bd80         	pop	{r7, pc}
 8002028: b580         	push	{r7, lr}
 800202a: 466f         	mov	r7, sp
 800202c: b098         	sub	sp, #96
 800202e: 9301         	str	r3, [sp, #4]
 8002030: 4613         	mov	r3, r2
 8002032: 9a01         	ldr	r2, [sp, #4]
 8002034: 9302         	str	r3, [sp, #8]
 8002036: 460b         	mov	r3, r1
 8002038: 9902         	ldr	r1, [sp, #8]
 800203a: 9303         	str	r3, [sp, #12]
 800203c: 9004         	str	r0, [sp, #16]
 800203e: 68b8         	ldr	r0, [r7, #8]
 8002040: 9005         	str	r0, [sp, #20]
 8002042: 9208         	str	r2, [sp, #32]
 8002044: 9107         	str	r1, [sp, #28]
 8002046: a80c         	add	r0, sp, #48
 8002048: f7fe fd4a    	bl	0x8000ae0 <.text+0xae0> @ imm = #-5484
 800204c: 980c         	ldr	r0, [sp, #48]
 800204e: 990d         	ldr	r1, [sp, #52]
 8002050: 9a0e         	ldr	r2, [sp, #56]
 8002052: 920b         	str	r2, [sp, #44]
 8002054: 910a         	str	r1, [sp, #40]
 8002056: 9009         	str	r0, [sp, #36]
 8002058: a80f         	add	r0, sp, #60
 800205a: a909         	add	r1, sp, #36
 800205c: f7fe fd4c    	bl	0x8000af8 <.text+0xaf8> @ imm = #-5480
 8002060: 980f         	ldr	r0, [sp, #60]
 8002062: 9010         	str	r0, [sp, #64]
 8002064: a810         	add	r0, sp, #64
 8002066: 9011         	str	r0, [sp, #68]
 8002068: 9014         	str	r0, [sp, #80]
 800206a: 9814         	ldr	r0, [sp, #80]
 800206c: 9012         	str	r0, [sp, #72]
 800206e: f640 3003    	movw	r0, #2819
 8002072: f6c0 0000    	movt	r0, #2048
 8002076: 9013         	str	r0, [sp, #76]
 8002078: a812         	add	r0, sp, #72
 800207a: 9006         	str	r0, [sp, #24]
 800207c: e7ff         	b	0x800207e <.text+0x207e> @ imm = #-2
 800207e: 9a05         	ldr	r2, [sp, #20]
 8002080: 9803         	ldr	r0, [sp, #12]
 8002082: 9906         	ldr	r1, [sp, #24]
 8002084: f000 fdf8    	bl	0x8002c78 <.text+0x2c78> @ imm = #3056
 8002088: 4601         	mov	r1, r0
 800208a: 9100         	str	r1, [sp]
 800208c: 0400         	lsls	r0, r0, #16
 800208e: b190         	cbz	r0, 0x80020b6 <.text+0x20b6> @ imm = #36
 8002090: e012         	b	0x80020b8 <.text+0x20b8> @ imm = #36
 8002092: a809         	add	r0, sp, #36
 8002094: f7fe fd90    	bl	0x8000bb8 <.text+0xbb8> @ imm = #-5344
 8002098: 460a         	mov	r2, r1
 800209a: 9904         	ldr	r1, [sp, #16]
 800209c: 2300         	movs	r3, #0
 800209e: f8ad 305c    	strh.w	r3, [sp, #92]
 80020a2: 9216         	str	r2, [sp, #88]
 80020a4: 9015         	str	r0, [sp, #84]
 80020a6: 9815         	ldr	r0, [sp, #84]
 80020a8: 9a16         	ldr	r2, [sp, #88]
 80020aa: 9b17         	ldr	r3, [sp, #92]
 80020ac: 608b         	str	r3, [r1, #8]
 80020ae: 604a         	str	r2, [r1, #4]
 80020b0: 6008         	str	r0, [r1]
 80020b2: b018         	add	sp, #96
 80020b4: bd80         	pop	{r7, pc}
 80020b6: e7ec         	b	0x8002092 <.text+0x2092> @ imm = #-40
 80020b8: 9800         	ldr	r0, [sp]
 80020ba: b280         	uxth	r0, r0
 80020bc: 2801         	cmp	r0, #1
 80020be: d004         	beq	0x80020ca <.text+0x20ca> @ imm = #8
 80020c0: e7ff         	b	0x80020c2 <.text+0x20c2> @ imm = #-2
 80020c2: 9900         	ldr	r1, [sp]
 80020c4: 9803         	ldr	r0, [sp, #12]
 80020c6: f7fe fd5a    	bl	0x8000b7e <.text+0xb7e> @ imm = #-5452
 80020ca: 9803         	ldr	r0, [sp, #12]
 80020cc: f7fe fc8f    	bl	0x80009ee <.text+0x9ee> @ imm = #-5858
 80020d0: 9904         	ldr	r1, [sp, #16]
 80020d2: 2001         	movs	r0, #1
 80020d4: 6088         	str	r0, [r1, #8]
 80020d6: 2000         	movs	r0, #0
 80020d8: 6048         	str	r0, [r1, #4]
 80020da: 6008         	str	r0, [r1]
 80020dc: b018         	add	sp, #96
 80020de: bd80         	pop	{r7, pc}
 80020e0: b580         	push	{r7, lr}
 80020e2: 466f         	mov	r7, sp
 80020e4: b090         	sub	sp, #64
 80020e6: 9309         	str	r3, [sp, #36]
 80020e8: 9105         	str	r1, [sp, #20]
 80020ea: 9006         	str	r0, [sp, #24]
 80020ec: 4618         	mov	r0, r3
 80020ee: 9007         	str	r0, [sp, #28]
 80020f0: 4610         	mov	r0, r2
 80020f2: 9008         	str	r0, [sp, #32]
 80020f4: 930c         	str	r3, [sp, #48]
 80020f6: 920b         	str	r2, [sp, #44]
 80020f8: 1e98         	subs	r0, r3, #2
 80020fa: fab0 f080    	clz	r0, r0
 80020fe: 0940         	lsrs	r0, r0, #5
 8002100: f7ff fe9d    	bl	0x8001e3e <.text+0x1e3e> @ imm = #-710
 8002104: 9b09         	ldr	r3, [sp, #36]
 8002106: 4618         	mov	r0, r3
 8002108: 900a         	str	r0, [sp, #40]
 800210a: b97b         	cbnz	r3, 0x800212c <.text+0x212c> @ imm = #30
 800210c: e00f         	b	0x800212e <.text+0x212e> @ imm = #30
 800210e: 9808         	ldr	r0, [sp, #32]
 8002110: 7800         	ldrb	r0, [r0]
 8002112: f000 00e0    	and	r0, r0, #224
 8002116: 38c0         	subs	r0, #192
 8002118: fab0 f080    	clz	r0, r0
 800211c: 0940         	lsrs	r0, r0, #5
 800211e: f7ff fe8e    	bl	0x8001e3e <.text+0x1e3e> @ imm = #-740
 8002122: 9807         	ldr	r0, [sp, #28]
 8002124: 4601         	mov	r1, r0
 8002126: 9104         	str	r1, [sp, #16]
 8002128: b9a0         	cbnz	r0, 0x8002154 <.text+0x2154> @ imm = #40
 800212a: e014         	b	0x8002156 <.text+0x2156> @ imm = #40
 800212c: e7ef         	b	0x800210e <.text+0x210e> @ imm = #-34
 800212e: 990a         	ldr	r1, [sp, #40]
 8002130: 2000         	movs	r0, #0
 8002132: f7fe f93d    	bl	0x80003b0 <.text+0x3b0> @ imm = #-7558
 8002136: 9807         	ldr	r0, [sp, #28]
 8002138: 9908         	ldr	r1, [sp, #32]
 800213a: 7809         	ldrb	r1, [r1]
 800213c: f001 011f    	and	r1, r1, #31
 8002140: 2200         	movs	r2, #0
 8002142: f88d 2036    	strb.w	r2, [sp, #54]
 8002146: f8ad 1034    	strh.w	r1, [sp, #52]
 800214a: 4601         	mov	r1, r0
 800214c: 9103         	str	r1, [sp, #12]
 800214e: 2801         	cmp	r0, #1
 8002150: d811         	bhi	0x8002176 <.text+0x2176> @ imm = #34
 8002152: e011         	b	0x8002178 <.text+0x2178> @ imm = #34
 8002154: e7ef         	b	0x8002136 <.text+0x2136> @ imm = #-34
 8002156: 9904         	ldr	r1, [sp, #16]
 8002158: 2000         	movs	r0, #0
 800215a: f7fe f929    	bl	0x80003b0 <.text+0x3b0> @ imm = #-7598
 800215e: 980d         	ldr	r0, [sp, #52]
 8002160: 9002         	str	r0, [sp, #8]
 8002162: 2001         	movs	r0, #1
 8002164: bb60         	cbnz	r0, 0x80021c0 <.text+0x21c0> @ imm = #88
 8002166: e02c         	b	0x80021c2 <.text+0x21c2> @ imm = #88
 8002168: 9808         	ldr	r0, [sp, #32]
 800216a: 7840         	ldrb	r0, [r0, #1]
 800216c: f000 00c0    	and	r0, r0, #192
 8002170: 2880         	cmp	r0, #128
 8002172: d105         	bne	0x8002180 <.text+0x2180> @ imm = #10
 8002174: e00e         	b	0x8002194 <.text+0x2194> @ imm = #28
 8002176: e7f7         	b	0x8002168 <.text+0x2168> @ imm = #-18
 8002178: 9903         	ldr	r1, [sp, #12]
 800217a: 2001         	movs	r0, #1
 800217c: f7fe f918    	bl	0x80003b0 <.text+0x3b0> @ imm = #-7632
 8002180: 9805         	ldr	r0, [sp, #20]
 8002182: f7fe fc34    	bl	0x80009ee <.text+0x9ee> @ imm = #-6040
 8002186: 9906         	ldr	r1, [sp, #24]
 8002188: 2004         	movs	r0, #4
 800218a: 6048         	str	r0, [r1, #4]
 800218c: 2000         	movs	r0, #0
 800218e: 6008         	str	r0, [r1]
 8002190: b010         	add	sp, #64
 8002192: bd80         	pop	{r7, pc}
 8002194: e7e3         	b	0x800215e <.text+0x215e> @ imm = #-58
 8002196: 9807         	ldr	r0, [sp, #28]
 8002198: 9a02         	ldr	r2, [sp, #8]
 800219a: 0191         	lsls	r1, r2, #6
 800219c: f8ad 1034    	strh.w	r1, [sp, #52]
 80021a0: f64f 71c0    	movw	r1, #65472
 80021a4: f2c0 011f    	movt	r1, #31
 80021a8: ea01 1182    	and.w	r1, r1, r2, lsl #6
 80021ac: 0c09         	lsrs	r1, r1, #16
 80021ae: f88d 1036    	strb.w	r1, [sp, #54]
 80021b2: 990d         	ldr	r1, [sp, #52]
 80021b4: 9100         	str	r1, [sp]
 80021b6: 4601         	mov	r1, r0
 80021b8: 9101         	str	r1, [sp, #4]
 80021ba: 2801         	cmp	r0, #1
 80021bc: d820         	bhi	0x8002200 <.text+0x2200> @ imm = #64
 80021be: e020         	b	0x8002202 <.text+0x2202> @ imm = #64
 80021c0: e7e9         	b	0x8002196 <.text+0x2196> @ imm = #-46
 80021c2: f240 201a    	movw	r0, #538
 80021c6: f2c2 0000    	movt	r0, #8192
 80021ca: f243 03b8    	movw	r3, #12472
 80021ce: f6c0 0300    	movt	r3, #2048
 80021d2: 212a         	movs	r1, #42
 80021d4: 2200         	movs	r2, #0
 80021d6: f7fe f8d3    	bl	0x8000380 <.text+0x380> @ imm = #-7770
 80021da: 9800         	ldr	r0, [sp]
 80021dc: 9908         	ldr	r1, [sp, #32]
 80021de: 7849         	ldrb	r1, [r1, #1]
 80021e0: f001 013f    	and	r1, r1, #63
 80021e4: 4308         	orrs	r0, r1
 80021e6: f8ad 0034    	strh.w	r0, [sp, #52]
 80021ea: f36f 505f    	bfc	r0, #21, #11
 80021ee: 0c00         	lsrs	r0, r0, #16
 80021f0: f88d 0036    	strb.w	r0, [sp, #54]
 80021f4: 980d         	ldr	r0, [sp, #52]
 80021f6: f36f 505f    	bfc	r0, #21, #11
 80021fa: 2880         	cmp	r0, #128
 80021fc: d317         	blo	0x800222e <.text+0x222e> @ imm = #46
 80021fe: e020         	b	0x8002242 <.text+0x2242> @ imm = #64
 8002200: e7eb         	b	0x80021da <.text+0x21da> @ imm = #-42
 8002202: 9901         	ldr	r1, [sp, #4]
 8002204: 2001         	movs	r0, #1
 8002206: f7fe f8d3    	bl	0x80003b0 <.text+0x3b0> @ imm = #-7770
 800220a: 9906         	ldr	r1, [sp, #24]
 800220c: 980d         	ldr	r0, [sp, #52]
 800220e: 2200         	movs	r2, #0
 8002210: f8ad 203c    	strh.w	r2, [sp, #60]
 8002214: f8ad 0038    	strh.w	r0, [sp, #56]
 8002218: f36f 505f    	bfc	r0, #21, #11
 800221c: 0c00         	lsrs	r0, r0, #16
 800221e: f88d 003a    	strb.w	r0, [sp, #58]
 8002222: 980e         	ldr	r0, [sp, #56]
 8002224: 9a0f         	ldr	r2, [sp, #60]
 8002226: 604a         	str	r2, [r1, #4]
 8002228: 6008         	str	r0, [r1]
 800222a: b010         	add	sp, #64
 800222c: bd80         	pop	{r7, pc}
 800222e: 9805         	ldr	r0, [sp, #20]
 8002230: f7fe fbdd    	bl	0x80009ee <.text+0x9ee> @ imm = #-6214
 8002234: 9906         	ldr	r1, [sp, #24]
 8002236: 2005         	movs	r0, #5
 8002238: 6048         	str	r0, [r1, #4]
 800223a: 2000         	movs	r0, #0
 800223c: 6008         	str	r0, [r1]
 800223e: b010         	add	sp, #64
 8002240: bd80         	pop	{r7, pc}
 8002242: e7e2         	b	0x800220a <.text+0x220a> @ imm = #-60
 8002244: b580         	push	{r7, lr}
 8002246: 466f         	mov	r7, sp
 8002248: b08e         	sub	sp, #56
 800224a: 9103         	str	r1, [sp, #12]
 800224c: 9004         	str	r0, [sp, #16]
 800224e: 9306         	str	r3, [sp, #24]
 8002250: 9205         	str	r2, [sp, #20]
 8002252: a807         	add	r0, sp, #28
 8002254: f000 fdac    	bl	0x8002db0 <.text+0x2db0> @ imm = #2904
 8002258: f8bd 0020    	ldrh.w	r0, [sp, #32]
 800225c: b170         	cbz	r0, 0x800227c <.text+0x227c> @ imm = #28
 800225e: e7ff         	b	0x8002260 <.text+0x2260> @ imm = #-2
 8002260: 9803         	ldr	r0, [sp, #12]
 8002262: f8bd 1020    	ldrh.w	r1, [sp, #32]
 8002266: f8ad 1028    	strh.w	r1, [sp, #40]
 800226a: f7fe fbc0    	bl	0x80009ee <.text+0x9ee> @ imm = #-6272
 800226e: 9904         	ldr	r1, [sp, #16]
 8002270: 9809         	ldr	r0, [sp, #36]
 8002272: 9a0a         	ldr	r2, [sp, #40]
 8002274: 604a         	str	r2, [r1, #4]
 8002276: 6008         	str	r0, [r1]
 8002278: b00e         	add	sp, #56
 800227a: bd80         	pop	{r7, pc}
 800227c: f89d 101e    	ldrb.w	r1, [sp, #30]
 8002280: f8bd 001c    	ldrh.w	r0, [sp, #28]
 8002284: ea40 4001    	orr.w	r0, r0, r1, lsl #16
 8002288: 4601         	mov	r1, r0
 800228a: 9102         	str	r1, [sp, #8]
 800228c: f8ad 002c    	strh.w	r0, [sp, #44]
 8002290: 0c01         	lsrs	r1, r0, #16
 8002292: f88d 102e    	strb.w	r1, [sp, #46]
 8002296: 0ac0         	lsrs	r0, r0, #11
 8002298: 281a         	cmp	r0, #26
 800229a: d816         	bhi	0x80022ca <.text+0x22ca> @ imm = #44
 800229c: e01f         	b	0x80022de <.text+0x22de> @ imm = #62
 800229e: 9904         	ldr	r1, [sp, #16]
 80022a0: 9802         	ldr	r0, [sp, #8]
 80022a2: 2200         	movs	r2, #0
 80022a4: f8ad 2034    	strh.w	r2, [sp, #52]
 80022a8: f8ad 0030    	strh.w	r0, [sp, #48]
 80022ac: f36f 505f    	bfc	r0, #21, #11
 80022b0: 0c00         	lsrs	r0, r0, #16
 80022b2: f88d 0032    	strb.w	r0, [sp, #50]
 80022b6: 980c         	ldr	r0, [sp, #48]
 80022b8: 9a0d         	ldr	r2, [sp, #52]
 80022ba: 604a         	str	r2, [r1, #4]
 80022bc: 6008         	str	r0, [r1]
 80022be: b00e         	add	sp, #56
 80022c0: bd80         	pop	{r7, pc}
 80022c2: 9801         	ldr	r0, [sp, #4]
 80022c4: 07c0         	lsls	r0, r0, #31
 80022c6: b968         	cbnz	r0, 0x80022e4 <.text+0x22e4> @ imm = #26
 80022c8: e016         	b	0x80022f8 <.text+0x22f8> @ imm = #44
 80022ca: 9902         	ldr	r1, [sp, #8]
 80022cc: f36f 515f    	bfc	r1, #21, #11
 80022d0: 2000         	movs	r0, #0
 80022d2: f5b1 4f60    	cmp.w	r1, #57344
 80022d6: bf38         	it	lo
 80022d8: 2001         	movlo	r0, #1
 80022da: 9001         	str	r0, [sp, #4]
 80022dc: e7f1         	b	0x80022c2 <.text+0x22c2> @ imm = #-30
 80022de: 2000         	movs	r0, #0
 80022e0: 9001         	str	r0, [sp, #4]
 80022e2: e7ee         	b	0x80022c2 <.text+0x22c2> @ imm = #-36
 80022e4: 9803         	ldr	r0, [sp, #12]
 80022e6: f7fe fb82    	bl	0x80009ee <.text+0x9ee> @ imm = #-6396
 80022ea: 9904         	ldr	r1, [sp, #16]
 80022ec: 2006         	movs	r0, #6
 80022ee: 6048         	str	r0, [r1, #4]
 80022f0: 2000         	movs	r0, #0
 80022f2: 6008         	str	r0, [r1]
 80022f4: b00e         	add	sp, #56
 80022f6: bd80         	pop	{r7, pc}
 80022f8: e7d1         	b	0x800229e <.text+0x229e> @ imm = #-94
 80022fa: b580         	push	{r7, lr}
 80022fc: 466f         	mov	r7, sp
 80022fe: b098         	sub	sp, #96
 8002300: 9311         	str	r3, [sp, #68]
 8002302: 910d         	str	r1, [sp, #52]
 8002304: 900e         	str	r0, [sp, #56]
 8002306: 4618         	mov	r0, r3
 8002308: 900f         	str	r0, [sp, #60]
 800230a: 4610         	mov	r0, r2
 800230c: 9010         	str	r0, [sp, #64]
 800230e: 9314         	str	r3, [sp, #80]
 8002310: 9213         	str	r2, [sp, #76]
 8002312: 1f18         	subs	r0, r3, #4
 8002314: fab0 f080    	clz	r0, r0
 8002318: 0940         	lsrs	r0, r0, #5
 800231a: f7ff fd90    	bl	0x8001e3e <.text+0x1e3e> @ imm = #-1248
 800231e: 9b11         	ldr	r3, [sp, #68]
 8002320: 4618         	mov	r0, r3
 8002322: 9012         	str	r0, [sp, #72]
 8002324: b97b         	cbnz	r3, 0x8002346 <.text+0x2346> @ imm = #30
 8002326: e00f         	b	0x8002348 <.text+0x2348> @ imm = #30
 8002328: 9810         	ldr	r0, [sp, #64]
 800232a: 7800         	ldrb	r0, [r0]
 800232c: f000 00f8    	and	r0, r0, #248
 8002330: 38f0         	subs	r0, #240
 8002332: fab0 f080    	clz	r0, r0
 8002336: 0940         	lsrs	r0, r0, #5
 8002338: f7ff fd81    	bl	0x8001e3e <.text+0x1e3e> @ imm = #-1278
 800233c: 980f         	ldr	r0, [sp, #60]
 800233e: 4601         	mov	r1, r0
 8002340: 910c         	str	r1, [sp, #48]
 8002342: b9a0         	cbnz	r0, 0x800236e <.text+0x236e> @ imm = #40
 8002344: e014         	b	0x8002370 <.text+0x2370> @ imm = #40
 8002346: e7ef         	b	0x8002328 <.text+0x2328> @ imm = #-34
 8002348: 9912         	ldr	r1, [sp, #72]
 800234a: 2000         	movs	r0, #0
 800234c: f7fe f830    	bl	0x80003b0 <.text+0x3b0> @ imm = #-8096
 8002350: 980f         	ldr	r0, [sp, #60]
 8002352: 9910         	ldr	r1, [sp, #64]
 8002354: 7809         	ldrb	r1, [r1]
 8002356: f001 0107    	and	r1, r1, #7
 800235a: 2200         	movs	r2, #0
 800235c: f88d 2056    	strb.w	r2, [sp, #86]
 8002360: f8ad 1054    	strh.w	r1, [sp, #84]
 8002364: 4601         	mov	r1, r0
 8002366: 910b         	str	r1, [sp, #44]
 8002368: 2801         	cmp	r0, #1
 800236a: d811         	bhi	0x8002390 <.text+0x2390> @ imm = #34
 800236c: e011         	b	0x8002392 <.text+0x2392> @ imm = #34
 800236e: e7ef         	b	0x8002350 <.text+0x2350> @ imm = #-34
 8002370: 990c         	ldr	r1, [sp, #48]
 8002372: 2000         	movs	r0, #0
 8002374: f7fe f81c    	bl	0x80003b0 <.text+0x3b0> @ imm = #-8136
 8002378: 9815         	ldr	r0, [sp, #84]
 800237a: 900a         	str	r0, [sp, #40]
 800237c: 2001         	movs	r0, #1
 800237e: bb60         	cbnz	r0, 0x80023da <.text+0x23da> @ imm = #88
 8002380: e02c         	b	0x80023dc <.text+0x23dc> @ imm = #88
 8002382: 9810         	ldr	r0, [sp, #64]
 8002384: 7840         	ldrb	r0, [r0, #1]
 8002386: f000 00c0    	and	r0, r0, #192
 800238a: 2880         	cmp	r0, #128
 800238c: d105         	bne	0x800239a <.text+0x239a> @ imm = #10
 800238e: e00e         	b	0x80023ae <.text+0x23ae> @ imm = #28
 8002390: e7f7         	b	0x8002382 <.text+0x2382> @ imm = #-18
 8002392: 990b         	ldr	r1, [sp, #44]
 8002394: 2001         	movs	r0, #1
 8002396: f7fe f80b    	bl	0x80003b0 <.text+0x3b0> @ imm = #-8170
 800239a: 980d         	ldr	r0, [sp, #52]
 800239c: f7fe fb27    	bl	0x80009ee <.text+0x9ee> @ imm = #-6578
 80023a0: 990e         	ldr	r1, [sp, #56]
 80023a2: 2004         	movs	r0, #4
 80023a4: 6048         	str	r0, [r1, #4]
 80023a6: 2000         	movs	r0, #0
 80023a8: 6008         	str	r0, [r1]
 80023aa: b018         	add	sp, #96
 80023ac: bd80         	pop	{r7, pc}
 80023ae: e7e3         	b	0x8002378 <.text+0x2378> @ imm = #-58
 80023b0: 980f         	ldr	r0, [sp, #60]
 80023b2: 9a0a         	ldr	r2, [sp, #40]
 80023b4: 0191         	lsls	r1, r2, #6
 80023b6: f8ad 1054    	strh.w	r1, [sp, #84]
 80023ba: f64f 71c0    	movw	r1, #65472
 80023be: f2c0 011f    	movt	r1, #31
 80023c2: ea01 1182    	and.w	r1, r1, r2, lsl #6
 80023c6: 0c09         	lsrs	r1, r1, #16
 80023c8: f88d 1056    	strb.w	r1, [sp, #86]
 80023cc: 9915         	ldr	r1, [sp, #84]
 80023ce: 9108         	str	r1, [sp, #32]
 80023d0: 4601         	mov	r1, r0
 80023d2: 9109         	str	r1, [sp, #36]
 80023d4: 2801         	cmp	r0, #1
 80023d6: d820         	bhi	0x800241a <.text+0x241a> @ imm = #64
 80023d8: e020         	b	0x800241c <.text+0x241c> @ imm = #64
 80023da: e7e9         	b	0x80023b0 <.text+0x23b0> @ imm = #-46
 80023dc: f240 201a    	movw	r0, #538
 80023e0: f2c2 0000    	movt	r0, #8192
 80023e4: f243 03b8    	movw	r3, #12472
 80023e8: f6c0 0300    	movt	r3, #2048
 80023ec: 212a         	movs	r1, #42
 80023ee: 2200         	movs	r2, #0
 80023f0: f7fd ffc6    	bl	0x8000380 <.text+0x380> @ imm = #-8308
 80023f4: 980f         	ldr	r0, [sp, #60]
 80023f6: 9908         	ldr	r1, [sp, #32]
 80023f8: 9a10         	ldr	r2, [sp, #64]
 80023fa: 7852         	ldrb	r2, [r2, #1]
 80023fc: f002 023f    	and	r2, r2, #63
 8002400: 4311         	orrs	r1, r2
 8002402: f8ad 1054    	strh.w	r1, [sp, #84]
 8002406: f36f 515f    	bfc	r1, #21, #11
 800240a: 0c09         	lsrs	r1, r1, #16
 800240c: f88d 1056    	strb.w	r1, [sp, #86]
 8002410: 4601         	mov	r1, r0
 8002412: 9107         	str	r1, [sp, #28]
 8002414: 2802         	cmp	r0, #2
 8002416: d811         	bhi	0x800243c <.text+0x243c> @ imm = #34
 8002418: e011         	b	0x800243e <.text+0x243e> @ imm = #34
 800241a: e7eb         	b	0x80023f4 <.text+0x23f4> @ imm = #-42
 800241c: 9909         	ldr	r1, [sp, #36]
 800241e: 2001         	movs	r0, #1
 8002420: f7fd ffc6    	bl	0x80003b0 <.text+0x3b0> @ imm = #-8308
 8002424: 9815         	ldr	r0, [sp, #84]
 8002426: 9006         	str	r0, [sp, #24]
 8002428: 2001         	movs	r0, #1
 800242a: bb60         	cbnz	r0, 0x8002486 <.text+0x2486> @ imm = #88
 800242c: e02c         	b	0x8002488 <.text+0x2488> @ imm = #88
 800242e: 9810         	ldr	r0, [sp, #64]
 8002430: 7880         	ldrb	r0, [r0, #2]
 8002432: f000 00c0    	and	r0, r0, #192
 8002436: 2880         	cmp	r0, #128
 8002438: d105         	bne	0x8002446 <.text+0x2446> @ imm = #10
 800243a: e00e         	b	0x800245a <.text+0x245a> @ imm = #28
 800243c: e7f7         	b	0x800242e <.text+0x242e> @ imm = #-18
 800243e: 9907         	ldr	r1, [sp, #28]
 8002440: 2002         	movs	r0, #2
 8002442: f7fd ffb5    	bl	0x80003b0 <.text+0x3b0> @ imm = #-8342
 8002446: 980d         	ldr	r0, [sp, #52]
 8002448: f7fe fad1    	bl	0x80009ee <.text+0x9ee> @ imm = #-6750
 800244c: 990e         	ldr	r1, [sp, #56]
 800244e: 2004         	movs	r0, #4
 8002450: 6048         	str	r0, [r1, #4]
 8002452: 2000         	movs	r0, #0
 8002454: 6008         	str	r0, [r1]
 8002456: b018         	add	sp, #96
 8002458: bd80         	pop	{r7, pc}
 800245a: e7e3         	b	0x8002424 <.text+0x2424> @ imm = #-58
 800245c: 980f         	ldr	r0, [sp, #60]
 800245e: 9a06         	ldr	r2, [sp, #24]
 8002460: 0191         	lsls	r1, r2, #6
 8002462: f8ad 1054    	strh.w	r1, [sp, #84]
 8002466: f64f 71c0    	movw	r1, #65472
 800246a: f2c0 011f    	movt	r1, #31
 800246e: ea01 1182    	and.w	r1, r1, r2, lsl #6
 8002472: 0c09         	lsrs	r1, r1, #16
 8002474: f88d 1056    	strb.w	r1, [sp, #86]
 8002478: 9915         	ldr	r1, [sp, #84]
 800247a: 9104         	str	r1, [sp, #16]
 800247c: 4601         	mov	r1, r0
 800247e: 9105         	str	r1, [sp, #20]
 8002480: 2802         	cmp	r0, #2
 8002482: d820         	bhi	0x80024c6 <.text+0x24c6> @ imm = #64
 8002484: e020         	b	0x80024c8 <.text+0x24c8> @ imm = #64
 8002486: e7e9         	b	0x800245c <.text+0x245c> @ imm = #-46
 8002488: f240 201a    	movw	r0, #538
 800248c: f2c2 0000    	movt	r0, #8192
 8002490: f243 03b8    	movw	r3, #12472
 8002494: f6c0 0300    	movt	r3, #2048
 8002498: 212a         	movs	r1, #42
 800249a: 2200         	movs	r2, #0
 800249c: f7fd ff70    	bl	0x8000380 <.text+0x380> @ imm = #-8480
 80024a0: 980f         	ldr	r0, [sp, #60]
 80024a2: 9904         	ldr	r1, [sp, #16]
 80024a4: 9a10         	ldr	r2, [sp, #64]
 80024a6: 7892         	ldrb	r2, [r2, #2]
 80024a8: f002 023f    	and	r2, r2, #63
 80024ac: 4311         	orrs	r1, r2
 80024ae: f8ad 1054    	strh.w	r1, [sp, #84]
 80024b2: f36f 515f    	bfc	r1, #21, #11
 80024b6: 0c09         	lsrs	r1, r1, #16
 80024b8: f88d 1056    	strb.w	r1, [sp, #86]
 80024bc: 4601         	mov	r1, r0
 80024be: 9103         	str	r1, [sp, #12]
 80024c0: 2803         	cmp	r0, #3
 80024c2: d811         	bhi	0x80024e8 <.text+0x24e8> @ imm = #34
 80024c4: e011         	b	0x80024ea <.text+0x24ea> @ imm = #34
 80024c6: e7eb         	b	0x80024a0 <.text+0x24a0> @ imm = #-42
 80024c8: 9905         	ldr	r1, [sp, #20]
 80024ca: 2002         	movs	r0, #2
 80024cc: f7fd ff70    	bl	0x80003b0 <.text+0x3b0> @ imm = #-8480
 80024d0: 9815         	ldr	r0, [sp, #84]
 80024d2: 9002         	str	r0, [sp, #8]
 80024d4: 2001         	movs	r0, #1
 80024d6: bb60         	cbnz	r0, 0x8002532 <.text+0x2532> @ imm = #88
 80024d8: e02c         	b	0x8002534 <.text+0x2534> @ imm = #88
 80024da: 9810         	ldr	r0, [sp, #64]
 80024dc: 78c0         	ldrb	r0, [r0, #3]
 80024de: f000 00c0    	and	r0, r0, #192
 80024e2: 2880         	cmp	r0, #128
 80024e4: d105         	bne	0x80024f2 <.text+0x24f2> @ imm = #10
 80024e6: e00e         	b	0x8002506 <.text+0x2506> @ imm = #28
 80024e8: e7f7         	b	0x80024da <.text+0x24da> @ imm = #-18
 80024ea: 9903         	ldr	r1, [sp, #12]
 80024ec: 2003         	movs	r0, #3
 80024ee: f7fd ff5f    	bl	0x80003b0 <.text+0x3b0> @ imm = #-8514
 80024f2: 980d         	ldr	r0, [sp, #52]
 80024f4: f7fe fa7b    	bl	0x80009ee <.text+0x9ee> @ imm = #-6922
 80024f8: 990e         	ldr	r1, [sp, #56]
 80024fa: 2004         	movs	r0, #4
 80024fc: 6048         	str	r0, [r1, #4]
 80024fe: 2000         	movs	r0, #0
 8002500: 6008         	str	r0, [r1]
 8002502: b018         	add	sp, #96
 8002504: bd80         	pop	{r7, pc}
 8002506: e7e3         	b	0x80024d0 <.text+0x24d0> @ imm = #-58
 8002508: 980f         	ldr	r0, [sp, #60]
 800250a: 9a02         	ldr	r2, [sp, #8]
 800250c: 0191         	lsls	r1, r2, #6
 800250e: f8ad 1054    	strh.w	r1, [sp, #84]
 8002512: f64f 71c0    	movw	r1, #65472
 8002516: f2c0 011f    	movt	r1, #31
 800251a: ea01 1182    	and.w	r1, r1, r2, lsl #6
 800251e: 0c09         	lsrs	r1, r1, #16
 8002520: f88d 1056    	strb.w	r1, [sp, #86]
 8002524: 9915         	ldr	r1, [sp, #84]
 8002526: 9100         	str	r1, [sp]
 8002528: 4601         	mov	r1, r0
 800252a: 9101         	str	r1, [sp, #4]
 800252c: 2803         	cmp	r0, #3
 800252e: d821         	bhi	0x8002574 <.text+0x2574> @ imm = #66
 8002530: e021         	b	0x8002576 <.text+0x2576> @ imm = #66
 8002532: e7e9         	b	0x8002508 <.text+0x2508> @ imm = #-46
 8002534: f240 201a    	movw	r0, #538
 8002538: f2c2 0000    	movt	r0, #8192
 800253c: f243 03b8    	movw	r3, #12472
 8002540: f6c0 0300    	movt	r3, #2048
 8002544: 212a         	movs	r1, #42
 8002546: 2200         	movs	r2, #0
 8002548: f7fd ff1a    	bl	0x8000380 <.text+0x380> @ imm = #-8652
 800254c: 9800         	ldr	r0, [sp]
 800254e: 9910         	ldr	r1, [sp, #64]
 8002550: 78c9         	ldrb	r1, [r1, #3]
 8002552: f001 013f    	and	r1, r1, #63
 8002556: 4308         	orrs	r0, r1
 8002558: f8ad 0054    	strh.w	r0, [sp, #84]
 800255c: f36f 505f    	bfc	r0, #21, #11
 8002560: 0c00         	lsrs	r0, r0, #16
 8002562: f88d 0056    	strb.w	r0, [sp, #86]
 8002566: 9815         	ldr	r0, [sp, #84]
 8002568: f36f 505f    	bfc	r0, #21, #11
 800256c: f5b0 3f80    	cmp.w	r0, #65536
 8002570: d30b         	blo	0x800258a <.text+0x258a> @ imm = #22
 8002572: e014         	b	0x800259e <.text+0x259e> @ imm = #40
 8002574: e7ea         	b	0x800254c <.text+0x254c> @ imm = #-44
 8002576: 9901         	ldr	r1, [sp, #4]
 8002578: 2003         	movs	r0, #3
 800257a: f7fd ff19    	bl	0x80003b0 <.text+0x3b0> @ imm = #-8654
 800257e: 9815         	ldr	r0, [sp, #84]
 8002580: f3c0 4004    	ubfx	r0, r0, #16, #5
 8002584: 2810         	cmp	r0, #16
 8002586: d81d         	bhi	0x80025c4 <.text+0x25c4> @ imm = #58
 8002588: e026         	b	0x80025d8 <.text+0x25d8> @ imm = #76
 800258a: 980d         	ldr	r0, [sp, #52]
 800258c: f7fe fa2f    	bl	0x80009ee <.text+0x9ee> @ imm = #-7074
 8002590: 990e         	ldr	r1, [sp, #56]
 8002592: 2005         	movs	r0, #5
 8002594: 6048         	str	r0, [r1, #4]
 8002596: 2000         	movs	r0, #0
 8002598: 6008         	str	r0, [r1]
 800259a: b018         	add	sp, #96
 800259c: bd80         	pop	{r7, pc}
 800259e: e7ee         	b	0x800257e <.text+0x257e> @ imm = #-36
 80025a0: 990e         	ldr	r1, [sp, #56]
 80025a2: 9815         	ldr	r0, [sp, #84]
 80025a4: 2200         	movs	r2, #0
 80025a6: f8ad 205c    	strh.w	r2, [sp, #92]
 80025aa: f8ad 0058    	strh.w	r0, [sp, #88]
 80025ae: f36f 505f    	bfc	r0, #21, #11
 80025b2: 0c00         	lsrs	r0, r0, #16
 80025b4: f88d 005a    	strb.w	r0, [sp, #90]
 80025b8: 9816         	ldr	r0, [sp, #88]
 80025ba: 9a17         	ldr	r2, [sp, #92]
 80025bc: 604a         	str	r2, [r1, #4]
 80025be: 6008         	str	r0, [r1]
 80025c0: b018         	add	sp, #96
 80025c2: bd80         	pop	{r7, pc}
 80025c4: 980d         	ldr	r0, [sp, #52]
 80025c6: f7fe fa12    	bl	0x80009ee <.text+0x9ee> @ imm = #-7132
 80025ca: 990e         	ldr	r1, [sp, #56]
 80025cc: 2007         	movs	r0, #7
 80025ce: 6048         	str	r0, [r1, #4]
 80025d0: 2000         	movs	r0, #0
 80025d2: 6008         	str	r0, [r1]
 80025d4: b018         	add	sp, #96
 80025d6: bd80         	pop	{r7, pc}
 80025d8: e7e2         	b	0x80025a0 <.text+0x25a0> @ imm = #-60
 80025da: b580         	push	{r7, lr}
 80025dc: 466f         	mov	r7, sp
 80025de: b086         	sub	sp, #24
 80025e0: 9202         	str	r2, [sp, #8]
 80025e2: 9101         	str	r1, [sp, #4]
 80025e4: 4601         	mov	r1, r0
 80025e6: 9802         	ldr	r0, [sp, #8]
 80025e8: 9103         	str	r1, [sp, #12]
 80025ea: 4602         	mov	r2, r0
 80025ec: f36f 525f    	bfc	r2, #21, #11
 80025f0: 4601         	mov	r1, r0
 80025f2: 9104         	str	r1, [sp, #16]
 80025f4: f8ad 0014    	strh.w	r0, [sp, #20]
 80025f8: 0c10         	lsrs	r0, r2, #16
 80025fa: f88d 0016    	strb.w	r0, [sp, #22]
 80025fe: 2a80         	cmp	r2, #128
 8002600: d307         	blo	0x8002612 <.text+0x2612> @ imm = #14
 8002602: e00f         	b	0x8002624 <.text+0x2624> @ imm = #30
 8002604: 9804         	ldr	r0, [sp, #16]
 8002606: f36f 505f    	bfc	r0, #21, #11
 800260a: f5b0 6f00    	cmp.w	r0, #2048
 800260e: d311         	blo	0x8002634 <.text+0x2634> @ imm = #34
 8002610: e019         	b	0x8002646 <.text+0x2646> @ imm = #50
 8002612: 9903         	ldr	r1, [sp, #12]
 8002614: f243 00c4    	movw	r0, #12484
 8002618: f6c0 0000    	movt	r0, #2048
 800261c: 6800         	ldr	r0, [r0]
 800261e: 6008         	str	r0, [r1]
 8002620: b006         	add	sp, #24
 8002622: bd80         	pop	{r7, pc}
 8002624: e7ee         	b	0x8002604 <.text+0x2604> @ imm = #-36
 8002626: 9804         	ldr	r0, [sp, #16]
 8002628: f36f 505f    	bfc	r0, #21, #11
 800262c: f5b0 3f80    	cmp.w	r0, #65536
 8002630: d311         	blo	0x8002656 <.text+0x2656> @ imm = #34
 8002632: e019         	b	0x8002668 <.text+0x2668> @ imm = #50
 8002634: 9903         	ldr	r1, [sp, #12]
 8002636: f243 00c8    	movw	r0, #12488
 800263a: f6c0 0000    	movt	r0, #2048
 800263e: 6800         	ldr	r0, [r0]
 8002640: 6008         	str	r0, [r1]
 8002642: b006         	add	sp, #24
 8002644: bd80         	pop	{r7, pc}
 8002646: e7ee         	b	0x8002626 <.text+0x2626> @ imm = #-36
 8002648: 9804         	ldr	r0, [sp, #16]
 800264a: f36f 505f    	bfc	r0, #21, #11
 800264e: f5b0 1f88    	cmp.w	r0, #1114112
 8002652: d312         	blo	0x800267a <.text+0x267a> @ imm = #36
 8002654: e01a         	b	0x800268c <.text+0x268c> @ imm = #52
 8002656: 9903         	ldr	r1, [sp, #12]
 8002658: f243 00d0    	movw	r0, #12496
 800265c: f6c0 0000    	movt	r0, #2048
 8002660: 6800         	ldr	r0, [r0]
 8002662: 6008         	str	r0, [r1]
 8002664: b006         	add	sp, #24
 8002666: bd80         	pop	{r7, pc}
 8002668: e7ee         	b	0x8002648 <.text+0x2648> @ imm = #-36
 800266a: 9801         	ldr	r0, [sp, #4]
 800266c: f7fe f9bf    	bl	0x80009ee <.text+0x9ee> @ imm = #-7298
 8002670: 9903         	ldr	r1, [sp, #12]
 8002672: 200b         	movs	r0, #11
 8002674: 6008         	str	r0, [r1]
 8002676: b006         	add	sp, #24
 8002678: bd80         	pop	{r7, pc}
 800267a: 9903         	ldr	r1, [sp, #12]
 800267c: f243 00c0    	movw	r0, #12480
 8002680: f6c0 0000    	movt	r0, #2048
 8002684: 6800         	ldr	r0, [r0]
 8002686: 6008         	str	r0, [r1]
 8002688: b006         	add	sp, #24
 800268a: bd80         	pop	{r7, pc}
 800268c: e7ed         	b	0x800266a <.text+0x266a> @ imm = #-38
 800268e: d4d4         	bmi	0x800263a <.text+0x263a> @ imm = #-88
 8002690: b580         	push	{r7, lr}
 8002692: 466f         	mov	r7, sp
 8002694: b0d2         	sub	sp, #328
 8002696: 9132         	str	r1, [sp, #200]
 8002698: 9033         	str	r0, [sp, #204]
 800269a: 68b8         	ldr	r0, [r7, #8]
 800269c: 9034         	str	r0, [sp, #208]
 800269e: 4694         	mov	r12, r2
 80026a0: f8cd c0d4    	str.w	r12, [sp, #212]
 80026a4: 469c         	mov	r12, r3
 80026a6: f8cd c0d8    	str.w	r12, [sp, #216]
 80026aa: f8ad 20dc    	strh.w	r2, [sp, #220]
 80026ae: 4694         	mov	r12, r2
 80026b0: f36f 5c5f    	bfc	r12, #21, #11
 80026b4: ea4f 4c1c    	lsr.w	r12, r12, #16
 80026b8: f88d c0de    	strb.w	r12, [sp, #222]
 80026bc: 9039         	str	r0, [sp, #228]
 80026be: 9338         	str	r3, [sp, #224]
 80026c0: f1a7 005e    	sub.w	r0, r7, #94
 80026c4: f7ff ff89    	bl	0x80025da <.text+0x25da> @ imm = #-238
 80026c8: f837 0c5e    	ldrh	r0, [r7, #-94]
 80026cc: b168         	cbz	r0, 0x80026ea <.text+0x26ea> @ imm = #26
 80026ce: e7ff         	b	0x80026d0 <.text+0x26d0> @ imm = #-2
 80026d0: 9832         	ldr	r0, [sp, #200]
 80026d2: f837 1c5e    	ldrh	r1, [r7, #-94]
 80026d6: f827 1c5a    	strh	r1, [r7, #-90]
 80026da: f7fe f988    	bl	0x80009ee <.text+0x9ee> @ imm = #-7408
 80026de: 9933         	ldr	r1, [sp, #204]
 80026e0: f857 0c5a    	ldr	r0, [r7, #-90]
 80026e4: 6008         	str	r0, [r1]
 80026e6: b052         	add	sp, #328
 80026e8: bd80         	pop	{r7, pc}
 80026ea: 9934         	ldr	r1, [sp, #208]
 80026ec: f817 2c5c    	ldrb	r2, [r7, #-92]
 80026f0: 922f         	str	r2, [sp, #188]
 80026f2: 4610         	mov	r0, r2
 80026f4: 902e         	str	r0, [sp, #184]
 80026f6: f807 2c55    	strb	r2, [r7, #-85]
 80026fa: 2000         	movs	r0, #0
 80026fc: 9030         	str	r0, [sp, #192]
 80026fe: 4291         	cmp	r1, r2
 8002700: bf28         	it	hs
 8002702: 2001         	movhs	r0, #1
 8002704: f7ff fb9b    	bl	0x8001e3e <.text+0x1e3e> @ imm = #-2250
 8002708: 992f         	ldr	r1, [sp, #188]
 800270a: 9830         	ldr	r0, [sp, #192]
 800270c: 3104         	adds	r1, #4
 800270e: f001 0107    	and	r1, r1, #7
 8002712: 9131         	str	r1, [sp, #196]
 8002714: b9b8         	cbnz	r0, 0x8002746 <.text+0x2746> @ imm = #46
 8002716: 9931         	ldr	r1, [sp, #196]
 8002718: e8df f011    	tbh	[pc, r1, lsl #1]
 800271c: 018e         	lsls	r6, r1, #6
 800271e: 0015         	movs	r5, r2
 8002720: 0015         	movs	r5, r2
 8002722: 0015         	movs	r5, r2
 8002724: 0015         	movs	r5, r2
 8002726: 0021         	movs	r1, r4
 8002728: 004d         	lsls	r5, r1, #1
 800272a: 00c4         	lsls	r4, r0, #3
 800272c: 9933         	ldr	r1, [sp, #204]
 800272e: 982e         	ldr	r0, [sp, #184]
 8002730: 2200         	movs	r2, #0
 8002732: f8ad 2144    	strh.w	r2, [sp, #324]
 8002736: f000 0007    	and	r0, r0, #7
 800273a: f88d 0146    	strb.w	r0, [sp, #326]
 800273e: 9851         	ldr	r0, [sp, #324]
 8002740: 6008         	str	r0, [r1]
 8002742: b052         	add	sp, #328
 8002744: bd80         	pop	{r7, pc}
 8002746: f240 1038    	movw	r0, #312
 800274a: f2c2 0000    	movt	r0, #8192
 800274e: f243 03b8    	movw	r3, #12472
 8002752: f6c0 0300    	movt	r3, #2048
 8002756: 2118         	movs	r1, #24
 8002758: 2200         	movs	r2, #0
 800275a: f7fd fe11    	bl	0x8000380 <.text+0x380> @ imm = #-9182
 800275e: 9834         	ldr	r0, [sp, #208]
 8002760: 9936         	ldr	r1, [sp, #216]
 8002762: 913d         	str	r1, [sp, #244]
 8002764: 903e         	str	r0, [sp, #248]
 8002766: 983d         	ldr	r0, [sp, #244]
 8002768: 902c         	str	r0, [sp, #176]
 800276a: 983e         	ldr	r0, [sp, #248]
 800276c: 4601         	mov	r1, r0
 800276e: 912d         	str	r1, [sp, #180]
 8002770: b958         	cbnz	r0, 0x800278a <.text+0x278a> @ imm = #22
 8002772: e00b         	b	0x800278c <.text+0x278c> @ imm = #22
 8002774: 9835         	ldr	r0, [sp, #212]
 8002776: 992c         	ldr	r1, [sp, #176]
 8002778: 912b         	str	r1, [sp, #172]
 800277a: f1c0 00ff    	rsb.w	r0, r0, #255
 800277e: f36f 505f    	bfc	r0, #21, #11
 8002782: f5b0 7f80    	cmp.w	r0, #256
 8002786: d309         	blo	0x800279c <.text+0x279c> @ imm = #18
 8002788: e009         	b	0x800279e <.text+0x279e> @ imm = #18
 800278a: e7f3         	b	0x8002774 <.text+0x2774> @ imm = #-26
 800278c: 992d         	ldr	r1, [sp, #180]
 800278e: 2000         	movs	r0, #0
 8002790: f7fd fe0e    	bl	0x80003b0 <.text+0x3b0> @ imm = #-9188
 8002794: 9835         	ldr	r0, [sp, #212]
 8002796: 992b         	ldr	r1, [sp, #172]
 8002798: 7008         	strb	r0, [r1]
 800279a: e7c7         	b	0x800272c <.text+0x272c> @ imm = #-114
 800279c: e7fa         	b	0x8002794 <.text+0x2794> @ imm = #-12
 800279e: f240 100b    	movw	r0, #267
 80027a2: f2c2 0000    	movt	r0, #8192
 80027a6: f243 03b8    	movw	r3, #12472
 80027aa: f6c0 0300    	movt	r3, #2048
 80027ae: 211b         	movs	r1, #27
 80027b0: 2200         	movs	r2, #0
 80027b2: f7fd fde5    	bl	0x8000380 <.text+0x380> @ imm = #-9270
 80027b6: 9834         	ldr	r0, [sp, #208]
 80027b8: 9936         	ldr	r1, [sp, #216]
 80027ba: 913f         	str	r1, [sp, #252]
 80027bc: 9040         	str	r0, [sp, #256]
 80027be: 983f         	ldr	r0, [sp, #252]
 80027c0: 9029         	str	r0, [sp, #164]
 80027c2: 9840         	ldr	r0, [sp, #256]
 80027c4: 4601         	mov	r1, r0
 80027c6: 912a         	str	r1, [sp, #168]
 80027c8: b948         	cbnz	r0, 0x80027de <.text+0x27de> @ imm = #18
 80027ca: e009         	b	0x80027e0 <.text+0x27e0> @ imm = #18
 80027cc: 9835         	ldr	r0, [sp, #212]
 80027ce: 9929         	ldr	r1, [sp, #164]
 80027d0: 9127         	str	r1, [sp, #156]
 80027d2: f3c0 108e    	ubfx	r0, r0, #6, #15
 80027d6: 9028         	str	r0, [sp, #160]
 80027d8: 2001         	movs	r0, #1
 80027da: b9a8         	cbnz	r0, 0x8002808 <.text+0x2808> @ imm = #42
 80027dc: e015         	b	0x800280a <.text+0x280a> @ imm = #42
 80027de: e7f5         	b	0x80027cc <.text+0x27cc> @ imm = #-22
 80027e0: 992a         	ldr	r1, [sp, #168]
 80027e2: 2000         	movs	r0, #0
 80027e4: f7fd fde4    	bl	0x80003b0 <.text+0x3b0> @ imm = #-9272
 80027e8: 9828         	ldr	r0, [sp, #160]
 80027ea: f040 00c0    	orr	r0, r0, #192
 80027ee: 4601         	mov	r1, r0
 80027f0: 9126         	str	r1, [sp, #152]
 80027f2: f1c0 00ff    	rsb.w	r0, r0, #255
 80027f6: f64f 713f    	movw	r1, #65343
 80027fa: f2c0 011f    	movt	r1, #31
 80027fe: 4008         	ands	r0, r1
 8002800: f5b0 7f80    	cmp.w	r0, #256
 8002804: d31c         	blo	0x8002840 <.text+0x2840> @ imm = #56
 8002806: e01c         	b	0x8002842 <.text+0x2842> @ imm = #56
 8002808: e7ee         	b	0x80027e8 <.text+0x27e8> @ imm = #-36
 800280a: f240 201a    	movw	r0, #538
 800280e: f2c2 0000    	movt	r0, #8192
 8002812: f243 03b8    	movw	r3, #12472
 8002816: f6c0 0300    	movt	r3, #2048
 800281a: 212a         	movs	r1, #42
 800281c: 2200         	movs	r2, #0
 800281e: f7fd fdaf    	bl	0x8000380 <.text+0x380> @ imm = #-9378
 8002822: 9836         	ldr	r0, [sp, #216]
 8002824: 9934         	ldr	r1, [sp, #208]
 8002826: 9a26         	ldr	r2, [sp, #152]
 8002828: 9b27         	ldr	r3, [sp, #156]
 800282a: 701a         	strb	r2, [r3]
 800282c: 9142         	str	r1, [sp, #264]
 800282e: 9041         	str	r0, [sp, #260]
 8002830: 9841         	ldr	r0, [sp, #260]
 8002832: 9024         	str	r0, [sp, #144]
 8002834: 9842         	ldr	r0, [sp, #264]
 8002836: 4601         	mov	r1, r0
 8002838: 9125         	str	r1, [sp, #148]
 800283a: 2801         	cmp	r0, #1
 800283c: d81c         	bhi	0x8002878 <.text+0x2878> @ imm = #56
 800283e: e01c         	b	0x800287a <.text+0x287a> @ imm = #56
 8002840: e7ef         	b	0x8002822 <.text+0x2822> @ imm = #-34
 8002842: f240 100b    	movw	r0, #267
 8002846: f2c2 0000    	movt	r0, #8192
 800284a: f243 03b8    	movw	r3, #12472
 800284e: f6c0 0300    	movt	r3, #2048
 8002852: 211b         	movs	r1, #27
 8002854: 2200         	movs	r2, #0
 8002856: f7fd fd93    	bl	0x8000380 <.text+0x380> @ imm = #-9434
 800285a: 9835         	ldr	r0, [sp, #212]
 800285c: 9924         	ldr	r1, [sp, #144]
 800285e: 3101         	adds	r1, #1
 8002860: 9122         	str	r1, [sp, #136]
 8002862: 2102         	movs	r1, #2
 8002864: f361 109f    	bfi	r0, r1, #6, #26
 8002868: 4601         	mov	r1, r0
 800286a: 9123         	str	r1, [sp, #140]
 800286c: f080 00ff    	eor	r0, r0, #255
 8002870: f5b0 7f80    	cmp.w	r0, #256
 8002874: d309         	blo	0x800288a <.text+0x288a> @ imm = #18
 8002876: e009         	b	0x800288c <.text+0x288c> @ imm = #18
 8002878: e7ef         	b	0x800285a <.text+0x285a> @ imm = #-34
 800287a: 9925         	ldr	r1, [sp, #148]
 800287c: 2001         	movs	r0, #1
 800287e: f7fd fd97    	bl	0x80003b0 <.text+0x3b0> @ imm = #-9426
 8002882: 9823         	ldr	r0, [sp, #140]
 8002884: 9922         	ldr	r1, [sp, #136]
 8002886: 7008         	strb	r0, [r1]
 8002888: e750         	b	0x800272c <.text+0x272c> @ imm = #-352
 800288a: e7fa         	b	0x8002882 <.text+0x2882> @ imm = #-12
 800288c: f240 100b    	movw	r0, #267
 8002890: f2c2 0000    	movt	r0, #8192
 8002894: f243 03b8    	movw	r3, #12472
 8002898: f6c0 0300    	movt	r3, #2048
 800289c: 211b         	movs	r1, #27
 800289e: 2200         	movs	r2, #0
 80028a0: f7fd fd6e    	bl	0x8000380 <.text+0x380> @ imm = #-9508
 80028a4: 9835         	ldr	r0, [sp, #212]
 80028a6: f000 f9c6    	bl	0x8002c36 <.text+0x2c36> @ imm = #908
 80028aa: 07c0         	lsls	r0, r0, #31
 80028ac: b958         	cbnz	r0, 0x80028c6 <.text+0x28c6> @ imm = #22
 80028ae: e012         	b	0x80028d6 <.text+0x28d6> @ imm = #36
 80028b0: 9834         	ldr	r0, [sp, #208]
 80028b2: 9936         	ldr	r1, [sp, #216]
 80028b4: 9143         	str	r1, [sp, #268]
 80028b6: 9044         	str	r0, [sp, #272]
 80028b8: 9843         	ldr	r0, [sp, #268]
 80028ba: 9020         	str	r0, [sp, #128]
 80028bc: 9844         	ldr	r0, [sp, #272]
 80028be: 4601         	mov	r1, r0
 80028c0: 9121         	str	r1, [sp, #132]
 80028c2: b990         	cbnz	r0, 0x80028ea <.text+0x28ea> @ imm = #36
 80028c4: e012         	b	0x80028ec <.text+0x28ec> @ imm = #36
 80028c6: 9832         	ldr	r0, [sp, #200]
 80028c8: f7fe f891    	bl	0x80009ee <.text+0x9ee> @ imm = #-7902
 80028cc: 9933         	ldr	r1, [sp, #204]
 80028ce: 200a         	movs	r0, #10
 80028d0: 6008         	str	r0, [r1]
 80028d2: b052         	add	sp, #328
 80028d4: bd80         	pop	{r7, pc}
 80028d6: e7eb         	b	0x80028b0 <.text+0x28b0> @ imm = #-42
 80028d8: 9835         	ldr	r0, [sp, #212]
 80028da: 9920         	ldr	r1, [sp, #128]
 80028dc: 911e         	str	r1, [sp, #120]
 80028de: f3c0 3008    	ubfx	r0, r0, #12, #9
 80028e2: 901f         	str	r0, [sp, #124]
 80028e4: 2001         	movs	r0, #1
 80028e6: b9a8         	cbnz	r0, 0x8002914 <.text+0x2914> @ imm = #42
 80028e8: e015         	b	0x8002916 <.text+0x2916> @ imm = #42
 80028ea: e7f5         	b	0x80028d8 <.text+0x28d8> @ imm = #-22
 80028ec: 9921         	ldr	r1, [sp, #132]
 80028ee: 2000         	movs	r0, #0
 80028f0: f7fd fd5e    	bl	0x80003b0 <.text+0x3b0> @ imm = #-9540
 80028f4: 981f         	ldr	r0, [sp, #124]
 80028f6: f040 00e0    	orr	r0, r0, #224
 80028fa: 4601         	mov	r1, r0
 80028fc: 911d         	str	r1, [sp, #116]
 80028fe: f1c0 00ff    	rsb.w	r0, r0, #255
 8002902: f64f 711f    	movw	r1, #65311
 8002906: f2c0 011f    	movt	r1, #31
 800290a: 4008         	ands	r0, r1
 800290c: f5b0 7f80    	cmp.w	r0, #256
 8002910: d31c         	blo	0x800294c <.text+0x294c> @ imm = #56
 8002912: e01c         	b	0x800294e <.text+0x294e> @ imm = #56
 8002914: e7ee         	b	0x80028f4 <.text+0x28f4> @ imm = #-36
 8002916: f240 201a    	movw	r0, #538
 800291a: f2c2 0000    	movt	r0, #8192
 800291e: f243 03b8    	movw	r3, #12472
 8002922: f6c0 0300    	movt	r3, #2048
 8002926: 212a         	movs	r1, #42
 8002928: 2200         	movs	r2, #0
 800292a: f7fd fd29    	bl	0x8000380 <.text+0x380> @ imm = #-9646
 800292e: 9836         	ldr	r0, [sp, #216]
 8002930: 9934         	ldr	r1, [sp, #208]
 8002932: 9a1d         	ldr	r2, [sp, #116]
 8002934: 9b1e         	ldr	r3, [sp, #120]
 8002936: 701a         	strb	r2, [r3]
 8002938: 9146         	str	r1, [sp, #280]
 800293a: 9045         	str	r0, [sp, #276]
 800293c: 9845         	ldr	r0, [sp, #276]
 800293e: 901b         	str	r0, [sp, #108]
 8002940: 9846         	ldr	r0, [sp, #280]
 8002942: 4601         	mov	r1, r0
 8002944: 911c         	str	r1, [sp, #112]
 8002946: 2801         	cmp	r0, #1
 8002948: d817         	bhi	0x800297a <.text+0x297a> @ imm = #46
 800294a: e017         	b	0x800297c <.text+0x297c> @ imm = #46
 800294c: e7ef         	b	0x800292e <.text+0x292e> @ imm = #-34
 800294e: f240 100b    	movw	r0, #267
 8002952: f2c2 0000    	movt	r0, #8192
 8002956: f243 03b8    	movw	r3, #12472
 800295a: f6c0 0300    	movt	r3, #2048
 800295e: 211b         	movs	r1, #27
 8002960: 2200         	movs	r2, #0
 8002962: f7fd fd0d    	bl	0x8000380 <.text+0x380> @ imm = #-9702
 8002966: 9835         	ldr	r0, [sp, #212]
 8002968: 991b         	ldr	r1, [sp, #108]
 800296a: 3101         	adds	r1, #1
 800296c: 9119         	str	r1, [sp, #100]
 800296e: f3c0 108e    	ubfx	r0, r0, #6, #15
 8002972: 901a         	str	r0, [sp, #104]
 8002974: 2001         	movs	r0, #1
 8002976: b988         	cbnz	r0, 0x800299c <.text+0x299c> @ imm = #34
 8002978: e011         	b	0x800299e <.text+0x299e> @ imm = #34
 800297a: e7f4         	b	0x8002966 <.text+0x2966> @ imm = #-24
 800297c: 991c         	ldr	r1, [sp, #112]
 800297e: 2001         	movs	r0, #1
 8002980: f7fd fd16    	bl	0x80003b0 <.text+0x3b0> @ imm = #-9684
 8002984: 981a         	ldr	r0, [sp, #104]
 8002986: 2102         	movs	r1, #2
 8002988: f361 109f    	bfi	r0, r1, #6, #26
 800298c: 4601         	mov	r1, r0
 800298e: 9118         	str	r1, [sp, #96]
 8002990: f080 00ff    	eor	r0, r0, #255
 8002994: f5b0 7f80    	cmp.w	r0, #256
 8002998: d31c         	blo	0x80029d4 <.text+0x29d4> @ imm = #56
 800299a: e01c         	b	0x80029d6 <.text+0x29d6> @ imm = #56
 800299c: e7f2         	b	0x8002984 <.text+0x2984> @ imm = #-28
 800299e: f240 201a    	movw	r0, #538
 80029a2: f2c2 0000    	movt	r0, #8192
 80029a6: f243 03b8    	movw	r3, #12472
 80029aa: f6c0 0300    	movt	r3, #2048
 80029ae: 212a         	movs	r1, #42
 80029b0: 2200         	movs	r2, #0
 80029b2: f7fd fce5    	bl	0x8000380 <.text+0x380> @ imm = #-9782
 80029b6: 9836         	ldr	r0, [sp, #216]
 80029b8: 9934         	ldr	r1, [sp, #208]
 80029ba: 9a18         	ldr	r2, [sp, #96]
 80029bc: 9b19         	ldr	r3, [sp, #100]
 80029be: 701a         	strb	r2, [r3]
 80029c0: 9148         	str	r1, [sp, #288]
 80029c2: 9047         	str	r0, [sp, #284]
 80029c4: 9847         	ldr	r0, [sp, #284]
 80029c6: 9016         	str	r0, [sp, #88]
 80029c8: 9848         	ldr	r0, [sp, #288]
 80029ca: 4601         	mov	r1, r0
 80029cc: 9117         	str	r1, [sp, #92]
 80029ce: 2802         	cmp	r0, #2
 80029d0: d81c         	bhi	0x8002a0c <.text+0x2a0c> @ imm = #56
 80029d2: e01c         	b	0x8002a0e <.text+0x2a0e> @ imm = #56
 80029d4: e7ef         	b	0x80029b6 <.text+0x29b6> @ imm = #-34
 80029d6: f240 100b    	movw	r0, #267
 80029da: f2c2 0000    	movt	r0, #8192
 80029de: f243 03b8    	movw	r3, #12472
 80029e2: f6c0 0300    	movt	r3, #2048
 80029e6: 211b         	movs	r1, #27
 80029e8: 2200         	movs	r2, #0
 80029ea: f7fd fcc9    	bl	0x8000380 <.text+0x380> @ imm = #-9838
 80029ee: 9835         	ldr	r0, [sp, #212]
 80029f0: 9916         	ldr	r1, [sp, #88]
 80029f2: 3102         	adds	r1, #2
 80029f4: 9114         	str	r1, [sp, #80]
 80029f6: 2102         	movs	r1, #2
 80029f8: f361 109f    	bfi	r0, r1, #6, #26
 80029fc: 4601         	mov	r1, r0
 80029fe: 9115         	str	r1, [sp, #84]
 8002a00: f080 00ff    	eor	r0, r0, #255
 8002a04: f5b0 7f80    	cmp.w	r0, #256
 8002a08: d309         	blo	0x8002a1e <.text+0x2a1e> @ imm = #18
 8002a0a: e009         	b	0x8002a20 <.text+0x2a20> @ imm = #18
 8002a0c: e7ef         	b	0x80029ee <.text+0x29ee> @ imm = #-34
 8002a0e: 9917         	ldr	r1, [sp, #92]
 8002a10: 2002         	movs	r0, #2
 8002a12: f7fd fccd    	bl	0x80003b0 <.text+0x3b0> @ imm = #-9830
 8002a16: 9815         	ldr	r0, [sp, #84]
 8002a18: 9914         	ldr	r1, [sp, #80]
 8002a1a: 7008         	strb	r0, [r1]
 8002a1c: e686         	b	0x800272c <.text+0x272c> @ imm = #-756
 8002a1e: e7fa         	b	0x8002a16 <.text+0x2a16> @ imm = #-12
 8002a20: f240 100b    	movw	r0, #267
 8002a24: f2c2 0000    	movt	r0, #8192
 8002a28: f243 03b8    	movw	r3, #12472
 8002a2c: f6c0 0300    	movt	r3, #2048
 8002a30: 211b         	movs	r1, #27
 8002a32: 2200         	movs	r2, #0
 8002a34: f7fd fca4    	bl	0x8000380 <.text+0x380> @ imm = #-9912
 8002a38: 9834         	ldr	r0, [sp, #208]
 8002a3a: 9936         	ldr	r1, [sp, #216]
 8002a3c: 9149         	str	r1, [sp, #292]
 8002a3e: 904a         	str	r0, [sp, #296]
 8002a40: 9849         	ldr	r0, [sp, #292]
 8002a42: 9012         	str	r0, [sp, #72]
 8002a44: 984a         	ldr	r0, [sp, #296]
 8002a46: 4601         	mov	r1, r0
 8002a48: 9113         	str	r1, [sp, #76]
 8002a4a: b948         	cbnz	r0, 0x8002a60 <.text+0x2a60> @ imm = #18
 8002a4c: e009         	b	0x8002a62 <.text+0x2a62> @ imm = #18
 8002a4e: 9835         	ldr	r0, [sp, #212]
 8002a50: 9912         	ldr	r1, [sp, #72]
 8002a52: 9110         	str	r1, [sp, #64]
 8002a54: f3c0 4082    	ubfx	r0, r0, #18, #3
 8002a58: 9011         	str	r0, [sp, #68]
 8002a5a: 2001         	movs	r0, #1
 8002a5c: b9a8         	cbnz	r0, 0x8002a8a <.text+0x2a8a> @ imm = #42
 8002a5e: e015         	b	0x8002a8c <.text+0x2a8c> @ imm = #42
 8002a60: e7f5         	b	0x8002a4e <.text+0x2a4e> @ imm = #-22
 8002a62: 9913         	ldr	r1, [sp, #76]
 8002a64: 2000         	movs	r0, #0
 8002a66: f7fd fca3    	bl	0x80003b0 <.text+0x3b0> @ imm = #-9914
 8002a6a: 9811         	ldr	r0, [sp, #68]
 8002a6c: f040 00f0    	orr	r0, r0, #240
 8002a70: 4601         	mov	r1, r0
 8002a72: 910f         	str	r1, [sp, #60]
 8002a74: f1c0 00ff    	rsb.w	r0, r0, #255
 8002a78: f64f 710f    	movw	r1, #65295
 8002a7c: f2c0 011f    	movt	r1, #31
 8002a80: 4008         	ands	r0, r1
 8002a82: f5b0 7f80    	cmp.w	r0, #256
 8002a86: d31c         	blo	0x8002ac2 <.text+0x2ac2> @ imm = #56
 8002a88: e01c         	b	0x8002ac4 <.text+0x2ac4> @ imm = #56
 8002a8a: e7ee         	b	0x8002a6a <.text+0x2a6a> @ imm = #-36
 8002a8c: f240 201a    	movw	r0, #538
 8002a90: f2c2 0000    	movt	r0, #8192
 8002a94: f243 03b8    	movw	r3, #12472
 8002a98: f6c0 0300    	movt	r3, #2048
 8002a9c: 212a         	movs	r1, #42
 8002a9e: 2200         	movs	r2, #0
 8002aa0: f7fd fc6e    	bl	0x8000380 <.text+0x380> @ imm = #-10020
 8002aa4: 9836         	ldr	r0, [sp, #216]
 8002aa6: 9934         	ldr	r1, [sp, #208]
 8002aa8: 9a0f         	ldr	r2, [sp, #60]
 8002aaa: 9b10         	ldr	r3, [sp, #64]
 8002aac: 701a         	strb	r2, [r3]
 8002aae: 914c         	str	r1, [sp, #304]
 8002ab0: 904b         	str	r0, [sp, #300]
 8002ab2: 984b         	ldr	r0, [sp, #300]
 8002ab4: 900d         	str	r0, [sp, #52]
 8002ab6: 984c         	ldr	r0, [sp, #304]
 8002ab8: 4601         	mov	r1, r0
 8002aba: 910e         	str	r1, [sp, #56]
 8002abc: 2801         	cmp	r0, #1
 8002abe: d817         	bhi	0x8002af0 <.text+0x2af0> @ imm = #46
 8002ac0: e017         	b	0x8002af2 <.text+0x2af2> @ imm = #46
 8002ac2: e7ef         	b	0x8002aa4 <.text+0x2aa4> @ imm = #-34
 8002ac4: f240 100b    	movw	r0, #267
 8002ac8: f2c2 0000    	movt	r0, #8192
 8002acc: f243 03b8    	movw	r3, #12472
 8002ad0: f6c0 0300    	movt	r3, #2048
 8002ad4: 211b         	movs	r1, #27
 8002ad6: 2200         	movs	r2, #0
 8002ad8: f7fd fc52    	bl	0x8000380 <.text+0x380> @ imm = #-10076
 8002adc: 9835         	ldr	r0, [sp, #212]
 8002ade: 990d         	ldr	r1, [sp, #52]
 8002ae0: 3101         	adds	r1, #1
 8002ae2: 910b         	str	r1, [sp, #44]
 8002ae4: f3c0 3008    	ubfx	r0, r0, #12, #9
 8002ae8: 900c         	str	r0, [sp, #48]
 8002aea: 2001         	movs	r0, #1
 8002aec: b988         	cbnz	r0, 0x8002b12 <.text+0x2b12> @ imm = #34
 8002aee: e011         	b	0x8002b14 <.text+0x2b14> @ imm = #34
 8002af0: e7f4         	b	0x8002adc <.text+0x2adc> @ imm = #-24
 8002af2: 990e         	ldr	r1, [sp, #56]
 8002af4: 2001         	movs	r0, #1
 8002af6: f7fd fc5b    	bl	0x80003b0 <.text+0x3b0> @ imm = #-10058
 8002afa: 980c         	ldr	r0, [sp, #48]
 8002afc: 2102         	movs	r1, #2
 8002afe: f361 109f    	bfi	r0, r1, #6, #26
 8002b02: 4601         	mov	r1, r0
 8002b04: 910a         	str	r1, [sp, #40]
 8002b06: f080 00ff    	eor	r0, r0, #255
 8002b0a: f5b0 7f80    	cmp.w	r0, #256
 8002b0e: d31c         	blo	0x8002b4a <.text+0x2b4a> @ imm = #56
 8002b10: e01c         	b	0x8002b4c <.text+0x2b4c> @ imm = #56
 8002b12: e7f2         	b	0x8002afa <.text+0x2afa> @ imm = #-28
 8002b14: f240 201a    	movw	r0, #538
 8002b18: f2c2 0000    	movt	r0, #8192
 8002b1c: f243 03b8    	movw	r3, #12472
 8002b20: f6c0 0300    	movt	r3, #2048
 8002b24: 212a         	movs	r1, #42
 8002b26: 2200         	movs	r2, #0
 8002b28: f7fd fc2a    	bl	0x8000380 <.text+0x380> @ imm = #-10156
 8002b2c: 9836         	ldr	r0, [sp, #216]
 8002b2e: 9934         	ldr	r1, [sp, #208]
 8002b30: 9a0a         	ldr	r2, [sp, #40]
 8002b32: 9b0b         	ldr	r3, [sp, #44]
 8002b34: 701a         	strb	r2, [r3]
 8002b36: 914e         	str	r1, [sp, #312]
 8002b38: 904d         	str	r0, [sp, #308]
 8002b3a: 984d         	ldr	r0, [sp, #308]
 8002b3c: 9008         	str	r0, [sp, #32]
 8002b3e: 984e         	ldr	r0, [sp, #312]
 8002b40: 4601         	mov	r1, r0
 8002b42: 9109         	str	r1, [sp, #36]
 8002b44: 2802         	cmp	r0, #2
 8002b46: d817         	bhi	0x8002b78 <.text+0x2b78> @ imm = #46
 8002b48: e017         	b	0x8002b7a <.text+0x2b7a> @ imm = #46
 8002b4a: e7ef         	b	0x8002b2c <.text+0x2b2c> @ imm = #-34
 8002b4c: f240 100b    	movw	r0, #267
 8002b50: f2c2 0000    	movt	r0, #8192
 8002b54: f243 03b8    	movw	r3, #12472
 8002b58: f6c0 0300    	movt	r3, #2048
 8002b5c: 211b         	movs	r1, #27
 8002b5e: 2200         	movs	r2, #0
 8002b60: f7fd fc0e    	bl	0x8000380 <.text+0x380> @ imm = #-10212
 8002b64: 9835         	ldr	r0, [sp, #212]
 8002b66: 9908         	ldr	r1, [sp, #32]
 8002b68: 3102         	adds	r1, #2
 8002b6a: 9106         	str	r1, [sp, #24]
 8002b6c: f3c0 108e    	ubfx	r0, r0, #6, #15
 8002b70: 9007         	str	r0, [sp, #28]
 8002b72: 2001         	movs	r0, #1
 8002b74: b988         	cbnz	r0, 0x8002b9a <.text+0x2b9a> @ imm = #34
 8002b76: e011         	b	0x8002b9c <.text+0x2b9c> @ imm = #34
 8002b78: e7f4         	b	0x8002b64 <.text+0x2b64> @ imm = #-24
 8002b7a: 9909         	ldr	r1, [sp, #36]
 8002b7c: 2002         	movs	r0, #2
 8002b7e: f7fd fc17    	bl	0x80003b0 <.text+0x3b0> @ imm = #-10194
 8002b82: 9807         	ldr	r0, [sp, #28]
 8002b84: 2102         	movs	r1, #2
 8002b86: f361 109f    	bfi	r0, r1, #6, #26
 8002b8a: 4601         	mov	r1, r0
 8002b8c: 9105         	str	r1, [sp, #20]
 8002b8e: f080 00ff    	eor	r0, r0, #255
 8002b92: f5b0 7f80    	cmp.w	r0, #256
 8002b96: d31c         	blo	0x8002bd2 <.text+0x2bd2> @ imm = #56
 8002b98: e01c         	b	0x8002bd4 <.text+0x2bd4> @ imm = #56
 8002b9a: e7f2         	b	0x8002b82 <.text+0x2b82> @ imm = #-28
 8002b9c: f240 201a    	movw	r0, #538
 8002ba0: f2c2 0000    	movt	r0, #8192
 8002ba4: f243 03b8    	movw	r3, #12472
 8002ba8: f6c0 0300    	movt	r3, #2048
 8002bac: 212a         	movs	r1, #42
 8002bae: 2200         	movs	r2, #0
 8002bb0: f7fd fbe6    	bl	0x8000380 <.text+0x380> @ imm = #-10292
 8002bb4: 9836         	ldr	r0, [sp, #216]
 8002bb6: 9934         	ldr	r1, [sp, #208]
 8002bb8: 9a05         	ldr	r2, [sp, #20]
 8002bba: 9b06         	ldr	r3, [sp, #24]
 8002bbc: 701a         	strb	r2, [r3]
 8002bbe: 9150         	str	r1, [sp, #320]
 8002bc0: 904f         	str	r0, [sp, #316]
 8002bc2: 984f         	ldr	r0, [sp, #316]
 8002bc4: 9003         	str	r0, [sp, #12]
 8002bc6: 9850         	ldr	r0, [sp, #320]
 8002bc8: 4601         	mov	r1, r0
 8002bca: 9104         	str	r1, [sp, #16]
 8002bcc: 2803         	cmp	r0, #3
 8002bce: d81c         	bhi	0x8002c0a <.text+0x2c0a> @ imm = #56
 8002bd0: e01c         	b	0x8002c0c <.text+0x2c0c> @ imm = #56
 8002bd2: e7ef         	b	0x8002bb4 <.text+0x2bb4> @ imm = #-34
 8002bd4: f240 100b    	movw	r0, #267
 8002bd8: f2c2 0000    	movt	r0, #8192
 8002bdc: f243 03b8    	movw	r3, #12472
 8002be0: f6c0 0300    	movt	r3, #2048
 8002be4: 211b         	movs	r1, #27
 8002be6: 2200         	movs	r2, #0
 8002be8: f7fd fbca    	bl	0x8000380 <.text+0x380> @ imm = #-10348
 8002bec: 9835         	ldr	r0, [sp, #212]
 8002bee: 9903         	ldr	r1, [sp, #12]
 8002bf0: 3103         	adds	r1, #3
 8002bf2: 9101         	str	r1, [sp, #4]
 8002bf4: 2102         	movs	r1, #2
 8002bf6: f361 109f    	bfi	r0, r1, #6, #26
 8002bfa: 4601         	mov	r1, r0
 8002bfc: 9102         	str	r1, [sp, #8]
 8002bfe: f080 00ff    	eor	r0, r0, #255
 8002c02: f5b0 7f80    	cmp.w	r0, #256
 8002c06: d309         	blo	0x8002c1c <.text+0x2c1c> @ imm = #18
 8002c08: e009         	b	0x8002c1e <.text+0x2c1e> @ imm = #18
 8002c0a: e7ef         	b	0x8002bec <.text+0x2bec> @ imm = #-34
 8002c0c: 9904         	ldr	r1, [sp, #16]
 8002c0e: 2003         	movs	r0, #3
 8002c10: f7fd fbce    	bl	0x80003b0 <.text+0x3b0> @ imm = #-10340
 8002c14: 9802         	ldr	r0, [sp, #8]
 8002c16: 9901         	ldr	r1, [sp, #4]
 8002c18: 7008         	strb	r0, [r1]
 8002c1a: e587         	b	0x800272c <.text+0x272c> @ imm = #-1266
 8002c1c: e7fa         	b	0x8002c14 <.text+0x2c14> @ imm = #-12
 8002c1e: f240 100b    	movw	r0, #267
 8002c22: f2c2 0000    	movt	r0, #8192
 8002c26: f243 03b8    	movw	r3, #12472
 8002c2a: f6c0 0300    	movt	r3, #2048
 8002c2e: 211b         	movs	r1, #27
 8002c30: 2200         	movs	r2, #0
 8002c32: f7fd fba5    	bl	0x8000380 <.text+0x380> @ imm = #-10422
 8002c36: b083         	sub	sp, #12
 8002c38: 4601         	mov	r1, r0
 8002c3a: 9101         	str	r1, [sp, #4]
 8002c3c: f8ad 0008    	strh.w	r0, [sp, #8]
 8002c40: f36f 505f    	bfc	r0, #21, #11
 8002c44: 0c00         	lsrs	r0, r0, #16
 8002c46: f88d 000a    	strb.w	r0, [sp, #10]
 8002c4a: e002         	b	0x8002c52 <.text+0x2c52> @ imm = #4
 8002c4c: 9800         	ldr	r0, [sp]
 8002c4e: b003         	add	sp, #12
 8002c50: 4770         	bx	lr
 8002c52: 9801         	ldr	r0, [sp, #4]
 8002c54: f36f 505f    	bfc	r0, #21, #11
 8002c58: f5b0 4f58    	cmp.w	r0, #55296
 8002c5c: d309         	blo	0x8002c72 <.text+0x2c72> @ imm = #18
 8002c5e: e7ff         	b	0x8002c60 <.text+0x2c60> @ imm = #-2
 8002c60: 9801         	ldr	r0, [sp, #4]
 8002c62: f3c0 3047    	ubfx	r0, r0, #13, #8
 8002c66: 2806         	cmp	r0, #6
 8002c68: d803         	bhi	0x8002c72 <.text+0x2c72> @ imm = #6
 8002c6a: e7ff         	b	0x8002c6c <.text+0x2c6c> @ imm = #-2
 8002c6c: 2001         	movs	r0, #1
 8002c6e: 9000         	str	r0, [sp]
 8002c70: e7ec         	b	0x8002c4c <.text+0x2c4c> @ imm = #-40
 8002c72: 2000         	movs	r0, #0
 8002c74: 9000         	str	r0, [sp]
 8002c76: e7e9         	b	0x8002c4c <.text+0x2c4c> @ imm = #-46
 8002c78: b580         	push	{r7, lr}
 8002c7a: 466f         	mov	r7, sp
 8002c7c: b08a         	sub	sp, #40
 8002c7e: 9203         	str	r2, [sp, #12]
 8002c80: 460a         	mov	r2, r1
 8002c82: 9204         	str	r2, [sp, #16]
 8002c84: 9005         	str	r0, [sp, #20]
 8002c86: 6811         	ldr	r1, [r2]
 8002c88: 6852         	ldr	r2, [r2, #4]
 8002c8a: 9208         	str	r2, [sp, #32]
 8002c8c: 9107         	str	r1, [sp, #28]
 8002c8e: f240 2245    	movw	r2, #581
 8002c92: f2c2 0200    	movt	r2, #8192
 8002c96: a907         	add	r1, sp, #28
 8002c98: 2319         	movs	r3, #25
 8002c9a: f7fd fe26    	bl	0x80008ea <.text+0x8ea> @ imm = #-9140
 8002c9e: 4601         	mov	r1, r0
 8002ca0: 9106         	str	r1, [sp, #24]
 8002ca2: 0400         	lsls	r0, r0, #16
 8002ca4: b918         	cbnz	r0, 0x8002cae <.text+0x2cae> @ imm = #6
 8002ca6: e008         	b	0x8002cba <.text+0x2cba> @ imm = #16
 8002ca8: 2000         	movs	r0, #0
 8002caa: b00a         	add	sp, #40
 8002cac: bd80         	pop	{r7, pc}
 8002cae: 9805         	ldr	r0, [sp, #20]
 8002cb0: f7fd fe9d    	bl	0x80009ee <.text+0x9ee> @ imm = #-8902
 8002cb4: 9806         	ldr	r0, [sp, #24]
 8002cb6: b00a         	add	sp, #40
 8002cb8: bd80         	pop	{r7, pc}
 8002cba: 9805         	ldr	r0, [sp, #20]
 8002cbc: 9b04         	ldr	r3, [sp, #16]
 8002cbe: 9a03         	ldr	r2, [sp, #12]
 8002cc0: 2100         	movs	r1, #0
 8002cc2: 9109         	str	r1, [sp, #36]
 8002cc4: 6811         	ldr	r1, [r2]
 8002cc6: 6852         	ldr	r2, [r2, #4]
 8002cc8: 46ec         	mov	r12, sp
 8002cca: f04f 0e03    	mov.w	lr, #3
 8002cce: f8cc e004    	str.w	lr, [r12, #4]
 8002cd2: f8cc 3000    	str.w	r3, [r12]
 8002cd6: f243 1308    	movw	r3, #12552
 8002cda: f6c0 0300    	movt	r3, #2048
 8002cde: f000 f80c    	bl	0x8002cfa <.text+0x2cfa> @ imm = #24
 8002ce2: 4601         	mov	r1, r0
 8002ce4: 9102         	str	r1, [sp, #8]
 8002ce6: 0400         	lsls	r0, r0, #16
 8002ce8: b130         	cbz	r0, 0x8002cf8 <.text+0x2cf8> @ imm = #12
 8002cea: e7ff         	b	0x8002cec <.text+0x2cec> @ imm = #-2
 8002cec: 9805         	ldr	r0, [sp, #20]
 8002cee: f7fd fe7e    	bl	0x80009ee <.text+0x9ee> @ imm = #-8964
 8002cf2: 9802         	ldr	r0, [sp, #8]
 8002cf4: b00a         	add	sp, #40
 8002cf6: bd80         	pop	{r7, pc}
 8002cf8: e7d6         	b	0x8002ca8 <.text+0x2ca8> @ imm = #-84
 8002cfa: b580         	push	{r7, lr}
 8002cfc: 466f         	mov	r7, sp
 8002cfe: b094         	sub	sp, #80
 8002d00: 9304         	str	r3, [sp, #16]
 8002d02: 9005         	str	r0, [sp, #20]
 8002d04: 68f8         	ldr	r0, [r7, #12]
 8002d06: 9006         	str	r0, [sp, #24]
 8002d08: 68b8         	ldr	r0, [r7, #8]
 8002d0a: 9007         	str	r0, [sp, #28]
 8002d0c: 4610         	mov	r0, r2
 8002d0e: 9008         	str	r0, [sp, #32]
 8002d10: 4608         	mov	r0, r1
 8002d12: 9009         	str	r0, [sp, #36]
 8002d14: 920b         	str	r2, [sp, #44]
 8002d16: 910a         	str	r1, [sp, #40]
 8002d18: 2001         	movs	r0, #1
 8002d1a: 900d         	str	r0, [sp, #52]
 8002d1c: f240 2062    	movw	r0, #610
 8002d20: f2c2 0000    	movt	r0, #8192
 8002d24: 900c         	str	r0, [sp, #48]
 8002d26: 2006         	movs	r0, #6
 8002d28: 900f         	str	r0, [sp, #60]
 8002d2a: f240 1001    	movw	r0, #257
 8002d2e: f2c2 0000    	movt	r0, #8192
 8002d32: 900e         	str	r0, [sp, #56]
 8002d34: e7ff         	b	0x8002d36 <.text+0x2d36> @ imm = #-2
 8002d36: 9806         	ldr	r0, [sp, #24]
 8002d38: b1a0         	cbz	r0, 0x8002d64 <.text+0x2d64> @ imm = #40
 8002d3a: e026         	b	0x8002d8a <.text+0x2d8a> @ imm = #76
 8002d3c: 9b04         	ldr	r3, [sp, #16]
 8002d3e: 9805         	ldr	r0, [sp, #20]
 8002d40: f8dd c01c    	ldr.w	r12, [sp, #28]
 8002d44: 9908         	ldr	r1, [sp, #32]
 8002d46: 9a09         	ldr	r2, [sp, #36]
 8002d48: 9212         	str	r2, [sp, #72]
 8002d4a: 9113         	str	r1, [sp, #76]
 8002d4c: 9912         	ldr	r1, [sp, #72]
 8002d4e: 9a13         	ldr	r2, [sp, #76]
 8002d50: 46ee         	mov	lr, sp
 8002d52: f8ce c000    	str.w	r12, [lr]
 8002d56: f7fe fc09    	bl	0x800156c <.text+0x156c> @ imm = #-6126
 8002d5a: 4601         	mov	r1, r0
 8002d5c: 9103         	str	r1, [sp, #12]
 8002d5e: 0400         	lsls	r0, r0, #16
 8002d60: b1e8         	cbz	r0, 0x8002d9e <.text+0x2d9e> @ imm = #58
 8002d62: e01f         	b	0x8002da4 <.text+0x2da4> @ imm = #62
 8002d64: 9805         	ldr	r0, [sp, #20]
 8002d66: 9a07         	ldr	r2, [sp, #28]
 8002d68: 6811         	ldr	r1, [r2]
 8002d6a: 6852         	ldr	r2, [r2, #4]
 8002d6c: 9211         	str	r2, [sp, #68]
 8002d6e: 9110         	str	r1, [sp, #64]
 8002d70: f240 2263    	movw	r2, #611
 8002d74: f2c2 0200    	movt	r2, #8192
 8002d78: a910         	add	r1, sp, #64
 8002d7a: 2307         	movs	r3, #7
 8002d7c: f7fd fdb5    	bl	0x80008ea <.text+0x8ea> @ imm = #-9366
 8002d80: 4601         	mov	r1, r0
 8002d82: 9102         	str	r1, [sp, #8]
 8002d84: 0400         	lsls	r0, r0, #16
 8002d86: b108         	cbz	r0, 0x8002d8c <.text+0x2d8c> @ imm = #2
 8002d88: e003         	b	0x8002d92 <.text+0x2d92> @ imm = #6
 8002d8a: e7d7         	b	0x8002d3c <.text+0x2d3c> @ imm = #-82
 8002d8c: 9802         	ldr	r0, [sp, #8]
 8002d8e: b014         	add	sp, #80
 8002d90: bd80         	pop	{r7, pc}
 8002d92: 9805         	ldr	r0, [sp, #20]
 8002d94: f7fd fe2b    	bl	0x80009ee <.text+0x9ee> @ imm = #-9130
 8002d98: 9802         	ldr	r0, [sp, #8]
 8002d9a: b014         	add	sp, #80
 8002d9c: bd80         	pop	{r7, pc}
 8002d9e: 9803         	ldr	r0, [sp, #12]
 8002da0: b014         	add	sp, #80
 8002da2: bd80         	pop	{r7, pc}
 8002da4: 9805         	ldr	r0, [sp, #20]
 8002da6: f7fd fe22    	bl	0x80009ee <.text+0x9ee> @ imm = #-9148
 8002daa: 9803         	ldr	r0, [sp, #12]
 8002dac: b014         	add	sp, #80
 8002dae: bd80         	pop	{r7, pc}
 8002db0: b580         	push	{r7, lr}
 8002db2: 466f         	mov	r7, sp
 8002db4: b094         	sub	sp, #80
 8002db6: 930d         	str	r3, [sp, #52]
 8002db8: 9109         	str	r1, [sp, #36]
 8002dba: 900a         	str	r0, [sp, #40]
 8002dbc: 4618         	mov	r0, r3
 8002dbe: 900b         	str	r0, [sp, #44]
 8002dc0: 4610         	mov	r0, r2
 8002dc2: 900c         	str	r0, [sp, #48]
 8002dc4: 9310         	str	r3, [sp, #64]
 8002dc6: 920f         	str	r2, [sp, #60]
 8002dc8: 1ed8         	subs	r0, r3, #3
 8002dca: fab0 f080    	clz	r0, r0
 8002dce: 0940         	lsrs	r0, r0, #5
 8002dd0: f7ff f835    	bl	0x8001e3e <.text+0x1e3e> @ imm = #-3990
 8002dd4: 9b0d         	ldr	r3, [sp, #52]
 8002dd6: 4618         	mov	r0, r3
 8002dd8: 900e         	str	r0, [sp, #56]
 8002dda: b97b         	cbnz	r3, 0x8002dfc <.text+0x2dfc> @ imm = #30
 8002ddc: e00f         	b	0x8002dfe <.text+0x2dfe> @ imm = #30
 8002dde: 980c         	ldr	r0, [sp, #48]
 8002de0: 7800         	ldrb	r0, [r0]
 8002de2: f000 00f0    	and	r0, r0, #240
 8002de6: 38e0         	subs	r0, #224
 8002de8: fab0 f080    	clz	r0, r0
 8002dec: 0940         	lsrs	r0, r0, #5
 8002dee: f7ff f826    	bl	0x8001e3e <.text+0x1e3e> @ imm = #-4020
 8002df2: 980b         	ldr	r0, [sp, #44]
 8002df4: 4601         	mov	r1, r0
 8002df6: 9108         	str	r1, [sp, #32]
 8002df8: b9a0         	cbnz	r0, 0x8002e24 <.text+0x2e24> @ imm = #40
 8002dfa: e014         	b	0x8002e26 <.text+0x2e26> @ imm = #40
 8002dfc: e7ef         	b	0x8002dde <.text+0x2dde> @ imm = #-34
 8002dfe: 990e         	ldr	r1, [sp, #56]
 8002e00: 2000         	movs	r0, #0
 8002e02: f7fd fad5    	bl	0x80003b0 <.text+0x3b0> @ imm = #-10838
 8002e06: 980b         	ldr	r0, [sp, #44]
 8002e08: 990c         	ldr	r1, [sp, #48]
 8002e0a: 7809         	ldrb	r1, [r1]
 8002e0c: f001 010f    	and	r1, r1, #15
 8002e10: 2200         	movs	r2, #0
 8002e12: f88d 2046    	strb.w	r2, [sp, #70]
 8002e16: f8ad 1044    	strh.w	r1, [sp, #68]
 8002e1a: 4601         	mov	r1, r0
 8002e1c: 9107         	str	r1, [sp, #28]
 8002e1e: 2801         	cmp	r0, #1
 8002e20: d811         	bhi	0x8002e46 <.text+0x2e46> @ imm = #34
 8002e22: e011         	b	0x8002e48 <.text+0x2e48> @ imm = #34
 8002e24: e7ef         	b	0x8002e06 <.text+0x2e06> @ imm = #-34
 8002e26: 9908         	ldr	r1, [sp, #32]
 8002e28: 2000         	movs	r0, #0
 8002e2a: f7fd fac1    	bl	0x80003b0 <.text+0x3b0> @ imm = #-10878
 8002e2e: 9811         	ldr	r0, [sp, #68]
 8002e30: 9006         	str	r0, [sp, #24]
 8002e32: 2001         	movs	r0, #1
 8002e34: bb60         	cbnz	r0, 0x8002e90 <.text+0x2e90> @ imm = #88
 8002e36: e02c         	b	0x8002e92 <.text+0x2e92> @ imm = #88
 8002e38: 980c         	ldr	r0, [sp, #48]
 8002e3a: 7840         	ldrb	r0, [r0, #1]
 8002e3c: f000 00c0    	and	r0, r0, #192
 8002e40: 2880         	cmp	r0, #128
 8002e42: d105         	bne	0x8002e50 <.text+0x2e50> @ imm = #10
 8002e44: e00e         	b	0x8002e64 <.text+0x2e64> @ imm = #28
 8002e46: e7f7         	b	0x8002e38 <.text+0x2e38> @ imm = #-18
 8002e48: 9907         	ldr	r1, [sp, #28]
 8002e4a: 2001         	movs	r0, #1
 8002e4c: f7fd fab0    	bl	0x80003b0 <.text+0x3b0> @ imm = #-10912
 8002e50: 9809         	ldr	r0, [sp, #36]
 8002e52: f7fd fdcc    	bl	0x80009ee <.text+0x9ee> @ imm = #-9320
 8002e56: 990a         	ldr	r1, [sp, #40]
 8002e58: 2004         	movs	r0, #4
 8002e5a: 6048         	str	r0, [r1, #4]
 8002e5c: 2000         	movs	r0, #0
 8002e5e: 6008         	str	r0, [r1]
 8002e60: b014         	add	sp, #80
 8002e62: bd80         	pop	{r7, pc}
 8002e64: e7e3         	b	0x8002e2e <.text+0x2e2e> @ imm = #-58
 8002e66: 980b         	ldr	r0, [sp, #44]
 8002e68: 9a06         	ldr	r2, [sp, #24]
 8002e6a: 0191         	lsls	r1, r2, #6
 8002e6c: f8ad 1044    	strh.w	r1, [sp, #68]
 8002e70: f64f 71c0    	movw	r1, #65472
 8002e74: f2c0 011f    	movt	r1, #31
 8002e78: ea01 1182    	and.w	r1, r1, r2, lsl #6
 8002e7c: 0c09         	lsrs	r1, r1, #16
 8002e7e: f88d 1046    	strb.w	r1, [sp, #70]
 8002e82: 9911         	ldr	r1, [sp, #68]
 8002e84: 9104         	str	r1, [sp, #16]
 8002e86: 4601         	mov	r1, r0
 8002e88: 9105         	str	r1, [sp, #20]
 8002e8a: 2801         	cmp	r0, #1
 8002e8c: d820         	bhi	0x8002ed0 <.text+0x2ed0> @ imm = #64
 8002e8e: e020         	b	0x8002ed2 <.text+0x2ed2> @ imm = #64
 8002e90: e7e9         	b	0x8002e66 <.text+0x2e66> @ imm = #-46
 8002e92: f240 201a    	movw	r0, #538
 8002e96: f2c2 0000    	movt	r0, #8192
 8002e9a: f243 03b8    	movw	r3, #12472
 8002e9e: f6c0 0300    	movt	r3, #2048
 8002ea2: 212a         	movs	r1, #42
 8002ea4: 2200         	movs	r2, #0
 8002ea6: f7fd fa6b    	bl	0x8000380 <.text+0x380> @ imm = #-11050
 8002eaa: 980b         	ldr	r0, [sp, #44]
 8002eac: 9904         	ldr	r1, [sp, #16]
 8002eae: 9a0c         	ldr	r2, [sp, #48]
 8002eb0: 7852         	ldrb	r2, [r2, #1]
 8002eb2: f002 023f    	and	r2, r2, #63
 8002eb6: 4311         	orrs	r1, r2
 8002eb8: f8ad 1044    	strh.w	r1, [sp, #68]
 8002ebc: f36f 515f    	bfc	r1, #21, #11
 8002ec0: 0c09         	lsrs	r1, r1, #16
 8002ec2: f88d 1046    	strb.w	r1, [sp, #70]
 8002ec6: 4601         	mov	r1, r0
 8002ec8: 9103         	str	r1, [sp, #12]
 8002eca: 2802         	cmp	r0, #2
 8002ecc: d811         	bhi	0x8002ef2 <.text+0x2ef2> @ imm = #34
 8002ece: e011         	b	0x8002ef4 <.text+0x2ef4> @ imm = #34
 8002ed0: e7eb         	b	0x8002eaa <.text+0x2eaa> @ imm = #-42
 8002ed2: 9905         	ldr	r1, [sp, #20]
 8002ed4: 2001         	movs	r0, #1
 8002ed6: f7fd fa6b    	bl	0x80003b0 <.text+0x3b0> @ imm = #-11050
 8002eda: 9811         	ldr	r0, [sp, #68]
 8002edc: 9002         	str	r0, [sp, #8]
 8002ede: 2001         	movs	r0, #1
 8002ee0: bb60         	cbnz	r0, 0x8002f3c <.text+0x2f3c> @ imm = #88
 8002ee2: e02c         	b	0x8002f3e <.text+0x2f3e> @ imm = #88
 8002ee4: 980c         	ldr	r0, [sp, #48]
 8002ee6: 7880         	ldrb	r0, [r0, #2]
 8002ee8: f000 00c0    	and	r0, r0, #192
 8002eec: 2880         	cmp	r0, #128
 8002eee: d105         	bne	0x8002efc <.text+0x2efc> @ imm = #10
 8002ef0: e00e         	b	0x8002f10 <.text+0x2f10> @ imm = #28
 8002ef2: e7f7         	b	0x8002ee4 <.text+0x2ee4> @ imm = #-18
 8002ef4: 9903         	ldr	r1, [sp, #12]
 8002ef6: 2002         	movs	r0, #2
 8002ef8: f7fd fa5a    	bl	0x80003b0 <.text+0x3b0> @ imm = #-11084
 8002efc: 9809         	ldr	r0, [sp, #36]
 8002efe: f7fd fd76    	bl	0x80009ee <.text+0x9ee> @ imm = #-9492
 8002f02: 990a         	ldr	r1, [sp, #40]
 8002f04: 2004         	movs	r0, #4
 8002f06: 6048         	str	r0, [r1, #4]
 8002f08: 2000         	movs	r0, #0
 8002f0a: 6008         	str	r0, [r1]
 8002f0c: b014         	add	sp, #80
 8002f0e: bd80         	pop	{r7, pc}
 8002f10: e7e3         	b	0x8002eda <.text+0x2eda> @ imm = #-58
 8002f12: 980b         	ldr	r0, [sp, #44]
 8002f14: 9a02         	ldr	r2, [sp, #8]
 8002f16: 0191         	lsls	r1, r2, #6
 8002f18: f8ad 1044    	strh.w	r1, [sp, #68]
 8002f1c: f64f 71c0    	movw	r1, #65472
 8002f20: f2c0 011f    	movt	r1, #31
 8002f24: ea01 1182    	and.w	r1, r1, r2, lsl #6
 8002f28: 0c09         	lsrs	r1, r1, #16
 8002f2a: f88d 1046    	strb.w	r1, [sp, #70]
 8002f2e: 9911         	ldr	r1, [sp, #68]
 8002f30: 9100         	str	r1, [sp]
 8002f32: 4601         	mov	r1, r0
 8002f34: 9101         	str	r1, [sp, #4]
 8002f36: 2802         	cmp	r0, #2
 8002f38: d821         	bhi	0x8002f7e <.text+0x2f7e> @ imm = #66
 8002f3a: e021         	b	0x8002f80 <.text+0x2f80> @ imm = #66
 8002f3c: e7e9         	b	0x8002f12 <.text+0x2f12> @ imm = #-46
 8002f3e: f240 201a    	movw	r0, #538
 8002f42: f2c2 0000    	movt	r0, #8192
 8002f46: f243 03b8    	movw	r3, #12472
 8002f4a: f6c0 0300    	movt	r3, #2048
 8002f4e: 212a         	movs	r1, #42
 8002f50: 2200         	movs	r2, #0
 8002f52: f7fd fa15    	bl	0x8000380 <.text+0x380> @ imm = #-11222
 8002f56: 9800         	ldr	r0, [sp]
 8002f58: 990c         	ldr	r1, [sp, #48]
 8002f5a: 7889         	ldrb	r1, [r1, #2]
 8002f5c: f001 013f    	and	r1, r1, #63
 8002f60: 4308         	orrs	r0, r1
 8002f62: f8ad 0044    	strh.w	r0, [sp, #68]
 8002f66: f36f 505f    	bfc	r0, #21, #11
 8002f6a: 0c00         	lsrs	r0, r0, #16
 8002f6c: f88d 0046    	strb.w	r0, [sp, #70]
 8002f70: 9811         	ldr	r0, [sp, #68]
 8002f72: f36f 505f    	bfc	r0, #21, #11
 8002f76: f5b0 6f00    	cmp.w	r0, #2048
 8002f7a: d317         	blo	0x8002fac <.text+0x2fac> @ imm = #46
 8002f7c: e020         	b	0x8002fc0 <.text+0x2fc0> @ imm = #64
 8002f7e: e7ea         	b	0x8002f56 <.text+0x2f56> @ imm = #-44
 8002f80: 9901         	ldr	r1, [sp, #4]
 8002f82: 2002         	movs	r0, #2
 8002f84: f7fd fa14    	bl	0x80003b0 <.text+0x3b0> @ imm = #-11224
 8002f88: 990a         	ldr	r1, [sp, #40]
 8002f8a: 9811         	ldr	r0, [sp, #68]
 8002f8c: 2200         	movs	r2, #0
 8002f8e: f8ad 204c    	strh.w	r2, [sp, #76]
 8002f92: f8ad 0048    	strh.w	r0, [sp, #72]
 8002f96: f36f 505f    	bfc	r0, #21, #11
 8002f9a: 0c00         	lsrs	r0, r0, #16
 8002f9c: f88d 004a    	strb.w	r0, [sp, #74]
 8002fa0: 9812         	ldr	r0, [sp, #72]
 8002fa2: 9a13         	ldr	r2, [sp, #76]
 8002fa4: 604a         	str	r2, [r1, #4]
 8002fa6: 6008         	str	r0, [r1]
 8002fa8: b014         	add	sp, #80
 8002faa: bd80         	pop	{r7, pc}
 8002fac: 9809         	ldr	r0, [sp, #36]
 8002fae: f7fd fd1e    	bl	0x80009ee <.text+0x9ee> @ imm = #-9668
 8002fb2: 990a         	ldr	r1, [sp, #40]
 8002fb4: 2005         	movs	r0, #5
 8002fb6: 6048         	str	r0, [r1, #4]
 8002fb8: 2000         	movs	r0, #0
 8002fba: 6008         	str	r0, [r1]
 8002fbc: b014         	add	sp, #80
 8002fbe: bd80         	pop	{r7, pc}
 8002fc0: e7e2         	b	0x8002f88 <.text+0x2f88> @ imm = #-60
 8002fc2: d4d4         	bmi	0x8002f6e <.text+0x2f6e> @ imm = #-88
 8002fc4: 2a00         	cmp	r2, #0
 8002fc6: bf08         	it	eq
 8002fc8: 4770         	bxeq	lr
 8002fca: b5b0         	push	{r4, r5, r7, lr}
 8002fcc: af02         	add	r7, sp, #8
 8002fce: 780d         	ldrb	r5, [r1]
 8002fd0: 1e53         	subs	r3, r2, #1
 8002fd2: 7005         	strb	r5, [r0]
 8002fd4: d029         	beq	0x800302a <.text+0x302a> @ imm = #82
 8002fd6: f013 0e03    	ands	lr, r3, #3
 8002fda: f1a2 0c02    	sub.w	r12, r2, #2
 8002fde: d017         	beq	0x8003010 <.text+0x3010> @ imm = #46
 8002fe0: 460c         	mov	r4, r1
 8002fe2: f814 3f01    	ldrb	r3, [r4, #1]!
 8002fe6: 4605         	mov	r5, r0
 8002fe8: f1be 0f01    	cmp.w	lr, #1
 8002fec: f805 3f01    	strb	r3, [r5, #1]!
 8002ff0: d102         	bne	0x8002ff8 <.text+0x2ff8> @ imm = #4
 8002ff2: 4663         	mov	r3, r12
 8002ff4: e00a         	b	0x800300c <.text+0x300c> @ imm = #20
 8002ff6: bf00         	nop
 8002ff8: 460c         	mov	r4, r1
 8002ffa: f814 3f02    	ldrb	r3, [r4, #2]!
 8002ffe: 4605         	mov	r5, r0
 8003000: f1be 0f02    	cmp.w	lr, #2
 8003004: f805 3f02    	strb	r3, [r5, #2]!
 8003008: d112         	bne	0x8003030 <.text+0x3030> @ imm = #36
 800300a: 1ed3         	subs	r3, r2, #3
 800300c: 4628         	mov	r0, r5
 800300e: 4621         	mov	r1, r4
 8003010: f1bc 0f03    	cmp.w	r12, #3
 8003014: d309         	blo	0x800302a <.text+0x302a> @ imm = #18
 8003016: 2200         	movs	r2, #0
 8003018: 188c         	adds	r4, r1, r2
 800301a: 1885         	adds	r5, r0, r2
 800301c: f8d4 4001    	ldr.w	r4, [r4, #1]
 8003020: 3204         	adds	r2, #4
 8003022: 4293         	cmp	r3, r2
 8003024: f8c5 4001    	str.w	r4, [r5, #1]
 8003028: d1f6         	bne	0x8003018 <.text+0x3018> @ imm = #-20
 800302a: e8bd 40b0    	pop.w	{r4, r5, r7, lr}
 800302e: 4770         	bx	lr
 8003030: f811 3f03    	ldrb	r3, [r1, #3]!
 8003034: f800 3f03    	strb	r3, [r0, #3]!
 8003038: 1f13         	subs	r3, r2, #4
 800303a: f1bc 0f03    	cmp.w	r12, #3
 800303e: d2ea         	bhs	0x8003016 <.text+0x3016> @ imm = #-44
 8003040: e7f3         	b	0x800302a <.text+0x302a> @ imm = #-26
 8003042: 460b         	mov	r3, r1
 8003044: 4611         	mov	r1, r2
 8003046: 461a         	mov	r2, r3
 8003048: f000 b804    	b.w	0x8003054 <.text+0x3054> @ imm = #8
 800304c: 460a         	mov	r2, r1
 800304e: 2100         	movs	r1, #0
 8003050: f000 b800    	b.w	0x8003054 <.text+0x3054> @ imm = #0
 8003054: 2a00         	cmp	r2, #0
 8003056: bf08         	it	eq
 8003058: 4770         	bxeq	lr
 800305a: b580         	push	{r7, lr}
 800305c: 466f         	mov	r7, sp
 800305e: f012 0e03    	ands	lr, r2, #3
 8003062: 4613         	mov	r3, r2
 8003064: 4684         	mov	r12, r0
 8003066: d010         	beq	0x800308a <.text+0x308a> @ imm = #32
 8003068: 4684         	mov	r12, r0
 800306a: f1be 0f01    	cmp.w	lr, #1
 800306e: f80c 1b01    	strb	r1, [r12], #1
 8003072: d103         	bne	0x800307c <.text+0x307c> @ imm = #6
 8003074: 1e53         	subs	r3, r2, #1
 8003076: 2a04         	cmp	r2, #4
 8003078: d209         	bhs	0x800308e <.text+0x308e> @ imm = #18
 800307a: e012         	b	0x80030a2 <.text+0x30a2> @ imm = #36
 800307c: f1be 0f02    	cmp.w	lr, #2
 8003080: 7041         	strb	r1, [r0, #1]
 8003082: d111         	bne	0x80030a8 <.text+0x30a8> @ imm = #34
 8003084: 1e93         	subs	r3, r2, #2
 8003086: f100 0c02    	add.w	r12, r0, #2
 800308a: 2a04         	cmp	r2, #4
 800308c: d309         	blo	0x80030a2 <.text+0x30a2> @ imm = #18
 800308e: f1ac 0204    	sub.w	r2, r12, #4
 8003092: bf00         	nop
 8003094: f802 1f04    	strb	r1, [r2, #4]!
 8003098: 3b04         	subs	r3, #4
 800309a: 7051         	strb	r1, [r2, #1]
 800309c: 7091         	strb	r1, [r2, #2]
 800309e: 70d1         	strb	r1, [r2, #3]
 80030a0: d1f8         	bne	0x8003094 <.text+0x3094> @ imm = #-16
 80030a2: e8bd 4080    	pop.w	{r7, lr}
 80030a6: 4770         	bx	lr
 80030a8: 1ed3         	subs	r3, r2, #3
 80030aa: f100 0c03    	add.w	r12, r0, #3
 80030ae: 7081         	strb	r1, [r0, #2]
 80030b0: 2a04         	cmp	r2, #4
 80030b2: d2ec         	bhs	0x800308e <.text+0x308e> @ imm = #-40
 80030b4: e7f5         	b	0x80030a2 <.text+0x30a2> @ imm = #-22
 80030b6: d4d4         	bmi	0x8003062 <.text+0x3062> @ imm = #-88
		...
 80030c0: 0000         	movs	r0, r0
 80030c2: 0004         	movs	r4, r0
 80030c4: 0000         	movs	r0, r0
 80030c6: 0001         	movs	r1, r0
 80030c8: 0000         	movs	r0, r0
 80030ca: 0002         	movs	r2, r0
 80030cc: 0008         	movs	r0, r1
 80030ce: 0000         	movs	r0, r0
 80030d0: 0000         	movs	r0, r0
 80030d2: 0003         	movs	r3, r0
		...
 80030e4: 0020         	movs	r0, r4
 80030e6: 0000         	movs	r0, r0
 80030e8: 0002         	movs	r2, r0
		...
 80030fa: 0000         	movs	r0, r0
 80030fc: 0020         	movs	r0, r4
 80030fe: 0000         	movs	r0, r0
 8003100: 0002         	movs	r2, r0
 8003102: 0000         	movs	r0, r0
 8003104: 31f4         	adds	r1, #244
 8003106: 0800         	lsrs	r0, r0, #32
		...
 8003118: 0020         	movs	r0, r4
 800311a: 0000         	movs	r0, r0
 800311c: 0002         	movs	r2, r0
 800311e: 0000         	movs	r0, r0
 8003120: 6f4e         	ldr	r6, [r1, #116]
 8003122: 7053         	strb	r3, [r2, #1]
 8003124: 6361         	str	r1, [r4, #52]
 8003126: 4c65         	ldr	r4, [pc, #404]          @ 0x80032bc <.text+0x32bc>
 8003128: 6665         	str	r5, [r4, #100]
 800312a: 0074         	lsls	r4, r6, #1
 800312c: 764f         	strb	r7, [r1, #25]
 800312e: 7265         	strb	r5, [r4, #9]
 8003130: 6c66         	ldr	r6, [r4, #68]
 8003132: 776f         	strb	r7, [r5, #29]
 8003134: 5500         	strb	r0, [r0, r4]
 8003136: 6674         	str	r4, [r6, #100]
 8003138: 4338         	orrs	r0, r7
 800313a: 6e61         	ldr	r1, [r4, #100]
 800313c: 6f6e         	ldr	r6, [r5, #116]
 800313e: 4574         	cmp	r4, lr
 8003140: 636e         	str	r6, [r5, #52]
 8003142: 646f         	str	r7, [r5, #68]
 8003144: 5365         	strh	r5, [r4, r5]
 8003146: 7275         	strb	r5, [r6, #9]
 8003148: 6f72         	ldr	r2, [r6, #116]
 800314a: 6167         	str	r7, [r4, #20]
 800314c: 6574         	str	r4, [r6, #84]
 800314e: 6148         	str	r0, [r1, #20]
 8003150: 666c         	str	r4, [r5, #100]
 8003152: 5500         	strb	r0, [r0, r4]
 8003154: 6674         	str	r4, [r6, #100]
 8003156: 4538         	cmp	r0, r7
 8003158: 7078         	strb	r0, [r7, #1]
 800315a: 6365         	str	r5, [r4, #52]
 800315c: 6574         	str	r4, [r6, #84]
 800315e: 4364         	muls	r4, r4, r4
 8003160: 6e6f         	ldr	r7, [r5, #100]
 8003162: 6974         	ldr	r4, [r6, #20]
 8003164: 756e         	strb	r6, [r5, #21]
 8003166: 7461         	strb	r1, [r4, #17]
 8003168: 6f69         	ldr	r1, [r5, #116]
 800316a: 006e         	lsls	r6, r5, #1
 800316c: 7455         	strb	r5, [r2, #17]
 800316e: 3866         	subs	r0, #102
 8003170: 6e45         	ldr	r5, [r0, #100]
 8003172: 6f63         	ldr	r3, [r4, #116]
 8003174: 6564         	str	r4, [r4, #84]
 8003176: 5373         	strh	r3, [r6, r5]
 8003178: 7275         	strb	r5, [r6, #9]
 800317a: 6f72         	ldr	r2, [r6, #116]
 800317c: 6167         	str	r7, [r4, #20]
 800317e: 6574         	str	r4, [r6, #84]
 8003180: 6148         	str	r0, [r1, #20]
 8003182: 666c         	str	r4, [r5, #100]
 8003184: 5500         	strb	r0, [r0, r4]
 8003186: 6674         	str	r4, [r6, #100]
 8003188: 4f38         	ldr	r7, [pc, #224]          @ 0x800326c <.text+0x326c>
 800318a: 6576         	str	r6, [r6, #84]
 800318c: 6c72         	ldr	r2, [r6, #68]
 800318e: 6e6f         	ldr	r7, [r5, #100]
 8003190: 4567         	cmp	r7, r12
 8003192: 636e         	str	r6, [r5, #52]
 8003194: 646f         	str	r7, [r5, #68]
 8003196: 6e69         	ldr	r1, [r5, #100]
 8003198: 0067         	lsls	r7, r4, #1
 800319a: 7254         	strb	r4, [r2, #9]
 800319c: 6e75         	ldr	r5, [r6, #100]
 800319e: 6163         	str	r3, [r4, #20]
 80031a0: 6574         	str	r4, [r6, #84]
 80031a2: 4964         	ldr	r1, [pc, #400]          @ 0x8003334 <.text+0x3334>
 80031a4: 706e         	strb	r6, [r5, #1]
 80031a6: 7475         	strb	r5, [r6, #17]
 80031a8: 5500         	strb	r0, [r0, r4]
 80031aa: 6674         	str	r4, [r6, #100]
 80031ac: 4338         	orrs	r0, r7
 80031ae: 646f         	str	r7, [r5, #68]
 80031b0: 7065         	strb	r5, [r4, #1]
 80031b2: 696f         	ldr	r7, [r5, #20]
 80031b4: 746e         	strb	r6, [r5, #17]
 80031b6: 6f54         	ldr	r4, [r2, #116]
 80031b8: 4c6f         	ldr	r4, [pc, #444]          @ 0x8003378 <.text+0x3378>
 80031ba: 7261         	strb	r1, [r4, #9]
 80031bc: 6567         	str	r7, [r4, #84]
 80031be: 4300         	orrs	r0, r0
 80031c0: 646f         	str	r7, [r5, #68]
 80031c2: 7065         	strb	r5, [r4, #1]
 80031c4: 696f         	ldr	r7, [r5, #20]
 80031c6: 746e         	strb	r6, [r5, #17]
 80031c8: 6f54         	ldr	r4, [r2, #116]
 80031ca: 4c6f         	ldr	r4, [pc, #444]          @ 0x8003388 <.text+0x3388>
 80031cc: 7261         	strb	r1, [r4, #9]
 80031ce: 6567         	str	r7, [r4, #84]
 80031d0: 4900         	ldr	r1, [pc, #0]            @ 0x80031d4 <.text+0x31d4>
 80031d2: 766e         	strb	r6, [r5, #25]
 80031d4: 6c61         	ldr	r1, [r4, #68]
 80031d6: 6469         	str	r1, [r5, #68]
 80031d8: 7455         	strb	r5, [r2, #17]
 80031da: 3866         	subs	r0, #102
 80031dc: 5500         	strb	r0, [r0, r4]
 80031de: 6674         	str	r4, [r6, #100]
 80031e0: 4938         	ldr	r1, [pc, #224]          @ 0x80032c4 <.text+0x32c4>
 80031e2: 766e         	strb	r6, [r5, #25]
 80031e4: 6c61         	ldr	r1, [r4, #68]
 80031e6: 6469         	str	r1, [r5, #68]
 80031e8: 7453         	strb	r3, [r2, #17]
 80031ea: 7261         	strb	r1, [r4, #9]
 80031ec: 4274         	rsbs	r4, r6, #0
 80031ee: 7479         	strb	r1, [r7, #17]
 80031f0: 0065         	lsls	r5, r4, #1
 80031f2: d4d4         	bmi	0x800319e <.text+0x319e> @ imm = #-88
		...
 80031fc: 3120         	adds	r1, #32
 80031fe: 0800         	lsrs	r0, r0, #32
 8003200: 000b         	movs	r3, r1
 8003202: 0000         	movs	r0, r0
 8003204: 312c         	adds	r1, #44
 8003206: 0800         	lsrs	r0, r0, #32
 8003208: 0008         	movs	r0, r1
 800320a: 0000         	movs	r0, r0
 800320c: 31d1         	adds	r1, #209
 800320e: 0800         	lsrs	r0, r0, #32
 8003210: 000b         	movs	r3, r1
 8003212: 0000         	movs	r0, r0
 8003214: 3153         	adds	r1, #83
 8003216: 0800         	lsrs	r0, r0, #32
 8003218: 0018         	movs	r0, r3
 800321a: 0000         	movs	r0, r0
 800321c: 3185         	adds	r1, #133
 800321e: 0800         	lsrs	r0, r0, #32
 8003220: 0014         	movs	r4, r2
 8003222: 0000         	movs	r0, r0
 8003224: 316c         	adds	r1, #108
 8003226: 0800         	lsrs	r0, r0, #32
 8003228: 0018         	movs	r0, r3
 800322a: 0000         	movs	r0, r0
 800322c: 31a9         	adds	r1, #169
 800322e: 0800         	lsrs	r0, r0, #32
 8003230: 0015         	movs	r5, r2
 8003232: 0000         	movs	r0, r0
 8003234: 31dd         	adds	r1, #221
 8003236: 0800         	lsrs	r0, r0, #32
 8003238: 0014         	movs	r4, r2
 800323a: 0000         	movs	r0, r0
 800323c: 319a         	adds	r1, #154
 800323e: 0800         	lsrs	r0, r0, #32
 8003240: 000e         	movs	r6, r1
 8003242: 0000         	movs	r0, r0
 8003244: 3135         	adds	r1, #53
 8003246: 0800         	lsrs	r0, r0, #32
 8003248: 001d         	movs	r5, r3
 800324a: 0000         	movs	r0, r0
 800324c: 31bf         	adds	r1, #191
 800324e: 0800         	lsrs	r0, r0, #32
 8003250: 0011         	movs	r1, r2
 8003252: 0000         	movs	r0, r0
 8003254: cf3c         	ldm	r7!, {r2, r3, r4, r5}
 8003256: 7fff         	ldrb	r7, [r7, #31]
 8003258: 0001         	movs	r1, r0
 800325a: 0000         	movs	r0, r0
 800325c: fe5a 7fff    	mrc2	p15, #2, r7, c10, c15, #7
 8003260: 0001         	movs	r1, r0
 8003262: 0000         	movs	r0, r0
 8003264: 6e69         	ldr	r1, [r5, #100]
 8003266: 6574         	str	r4, [r6, #84]
 8003268: 6567         	str	r7, [r4, #84]
 800326a: 2072         	movs	r0, #114
 800326c: 766f         	strb	r7, [r5, #25]
 800326e: 7265         	strb	r5, [r4, #9]
 8003270: 6c66         	ldr	r6, [r4, #68]
 8003272: 776f         	strb	r7, [r5, #29]
 8003274: 4000         	ands	r0, r0
 8003276: 656d         	str	r5, [r5, #84]
 8003278: 636d         	str	r5, [r5, #52]
 800327a: 7970         	ldrb	r0, [r6, #5]
 800327c: 6120         	str	r0, [r4, #16]
 800327e: 6772         	str	r2, [r6, #116]
 8003280: 6d75         	ldr	r5, [r6, #84]
 8003282: 6e65         	ldr	r5, [r4, #100]
 8003284: 7374         	strb	r4, [r6, #13]
 8003286: 6820         	ldr	r0, [r4]
 8003288: 7661         	strb	r1, [r4, #25]
 800328a: 2065         	movs	r0, #101
 800328c: 6f6e         	ldr	r6, [r5, #116]
 800328e: 2d6e         	cmp	r5, #110
 8003290: 7165         	strb	r5, [r4, #5]
 8003292: 6175         	str	r5, [r6, #20]
 8003294: 206c         	movs	r0, #108
 8003296: 656c         	str	r4, [r5, #84]
 8003298: 676e         	str	r6, [r5, #116]
 800329a: 6874         	ldr	r4, [r6, #4]
 800329c: 0073         	lsls	r3, r6, #1
 800329e: 6d40         	ldr	r0, [r0, #84]
 80032a0: 6d65         	ldr	r5, [r4, #84]
 80032a2: 7063         	strb	r3, [r4, #1]
 80032a4: 2079         	movs	r0, #121
 80032a6: 7261         	strb	r1, [r4, #9]
 80032a8: 7567         	strb	r7, [r4, #21]
 80032aa: 656d         	str	r5, [r5, #84]
 80032ac: 746e         	strb	r6, [r5, #17]
 80032ae: 2073         	movs	r0, #115
 80032b0: 6c61         	ldr	r1, [r4, #68]
 80032b2: 6169         	str	r1, [r5, #20]
 80032b4: 0073         	lsls	r3, r6, #1
 80032b6: 6e27         	ldr	r7, [r4, #96]
 80032b8: 726f         	strb	r7, [r5, #9]
 80032ba: 7465         	strb	r5, [r4, #17]
 80032bc: 7275         	strb	r5, [r6, #9]
 80032be: 276e         	movs	r7, #110
 80032c0: 6620         	str	r0, [r4, #96]
 80032c2: 6e75         	ldr	r5, [r6, #100]
 80032c4: 7463         	strb	r3, [r4, #17]
 80032c6: 6f69         	ldr	r1, [r5, #116]
 80032c8: 206e         	movs	r0, #110
 80032ca: 6572         	str	r2, [r6, #84]
 80032cc: 7574         	strb	r4, [r6, #21]
 80032ce: 6e72         	ldr	r2, [r6, #100]
 80032d0: 6465         	str	r5, [r4, #68]
 80032d2: 2800         	cmp	r0, #0
 80032d4: 736d         	strb	r5, [r5, #13]
 80032d6: 2067         	movs	r0, #103
 80032d8: 7274         	strb	r4, [r6, #9]
 80032da: 6e75         	ldr	r5, [r6, #100]
 80032dc: 6163         	str	r3, [r4, #20]
 80032de: 6574         	str	r4, [r6, #84]
 80032e0: 2964         	cmp	r1, #100
 80032e2: 7300         	strb	r0, [r0, #12]
 80032e4: 6977         	ldr	r7, [r6, #20]
 80032e6: 6374         	str	r4, [r6, #52]
 80032e8: 2068         	movs	r0, #104
 80032ea: 6e6f         	ldr	r7, [r5, #100]
 80032ec: 6320         	str	r0, [r4, #48]
 80032ee: 726f         	strb	r7, [r5, #9]
 80032f0: 7572         	strb	r2, [r6, #21]
 80032f2: 7470         	strb	r0, [r6, #17]
 80032f4: 7620         	strb	r0, [r4, #24]
 80032f6: 6c61         	ldr	r1, [r4, #68]
 80032f8: 6575         	str	r5, [r6, #84]
 80032fa: 7300         	strb	r0, [r0, #12]
 80032fc: 6174         	str	r4, [r6, #20]
 80032fe: 7472         	strb	r2, [r6, #17]
 8003300: 6920         	ldr	r0, [r4, #16]
 8003302: 646e         	str	r6, [r5, #68]
 8003304: 7865         	ldrb	r5, [r4, #1]
 8003306: 7b20         	ldrb	r0, [r4, #12]
 8003308: 7d64         	ldrb	r4, [r4, #21]
 800330a: 6920         	ldr	r0, [r4, #16]
 800330c: 2073         	movs	r0, #115
 800330e: 616c         	str	r4, [r5, #20]
 8003310: 6772         	str	r2, [r6, #116]
 8003312: 7265         	strb	r5, [r4, #9]
 8003314: 7420         	strb	r0, [r4, #16]
 8003316: 6168         	str	r0, [r5, #20]
 8003318: 206e         	movs	r0, #110
 800331a: 6e65         	ldr	r5, [r4, #100]
 800331c: 2064         	movs	r0, #100
 800331e: 6e69         	ldr	r1, [r5, #100]
 8003320: 6564         	str	r4, [r4, #84]
 8003322: 2078         	movs	r0, #120
 8003324: 647b         	str	r3, [r7, #68]
 8003326: 007d         	lsls	r5, r7, #1
 8003328: 6964         	ldr	r4, [r4, #20]
 800332a: 646e         	str	r6, [r5, #68]
 800332c: 7865         	ldrb	r5, [r4, #1]
 800332e: 6f20         	ldr	r0, [r4, #112]
 8003330: 7475         	strb	r5, [r6, #17]
 8003332: 6f20         	ldr	r0, [r4, #112]
 8003334: 2066         	movs	r0, #102
 8003336: 6f62         	ldr	r2, [r4, #116]
 8003338: 6e75         	ldr	r5, [r6, #100]
 800333a: 7364         	strb	r4, [r4, #13]
 800333c: 203a         	movs	r0, #58
 800333e: 6e69         	ldr	r1, [r5, #100]
 8003340: 6564         	str	r4, [r4, #84]
 8003342: 2078         	movs	r0, #120
 8003344: 647b         	str	r3, [r7, #68]
 8003346: 2c7d         	cmp	r4, #125
 8003348: 6c20         	ldr	r0, [r4, #64]
 800334a: 6e65         	ldr	r5, [r4, #100]
 800334c: 7b20         	ldrb	r0, [r4, #12]
 800334e: 7d64         	ldrb	r4, [r4, #21]
 8003350: 6900         	ldr	r0, [r0, #16]
 8003352: 636e         	str	r6, [r5, #52]
 8003354: 726f         	strb	r7, [r5, #9]
 8003356: 6572         	str	r2, [r6, #84]
 8003358: 7463         	strb	r3, [r4, #17]
 800335a: 6120         	str	r0, [r4, #16]
 800335c: 696c         	ldr	r4, [r5, #20]
 800335e: 6e67         	ldr	r7, [r4, #100]
 8003360: 656d         	str	r5, [r5, #84]
 8003362: 746e         	strb	r6, [r5, #17]
 8003364: 6600         	str	r0, [r0, #96]
 8003366: 726f         	strb	r7, [r5, #9]
 8003368: 616d         	str	r5, [r5, #20]
 800336a: 0074         	lsls	r4, r6, #1
 800336c: bfef         	iteee	al                      @ unpredictable IT predicate sequence
 800336e: 69bd         	ldr	r5, [r7, #24]
 8003370: 746e         	strb<und>	r6, [r5, #17]
 8003372: 6765         	str<und>	r5, [r4, #116]
 8003374: 7265         	strb<und>	r5, [r4, #9]
 8003376: 6320         	str	r0, [r4, #48]
 8003378: 7361         	strb	r1, [r4, #13]
 800337a: 2074         	movs	r0, #116
 800337c: 7274         	strb	r4, [r6, #9]
 800337e: 6e75         	ldr	r5, [r6, #100]
 8003380: 6163         	str	r3, [r4, #20]
 8003382: 6574         	str	r4, [r6, #84]
 8003384: 2064         	movs	r0, #100
 8003386: 6962         	ldr	r2, [r4, #20]
 8003388: 7374         	strb	r4, [r6, #13]
 800338a: 6400         	str	r0, [r0, #64]
 800338c: 7669         	strb	r1, [r5, #25]
 800338e: 7369         	strb	r1, [r5, #13]
 8003390: 6f69         	ldr	r1, [r5, #116]
 8003392: 206e         	movs	r0, #110
 8003394: 7962         	ldrb	r2, [r4, #5]
 8003396: 7a20         	ldrb	r0, [r4, #8]
 8003398: 7265         	strb	r5, [r4, #9]
 800339a: 006f         	lsls	r7, r5, #1
 800339c: 6572         	str	r2, [r6, #84]
 800339e: 6361         	str	r1, [r4, #52]
 80033a0: 6568         	str	r0, [r5, #84]
 80033a2: 2064         	movs	r0, #100
 80033a4: 6e75         	ldr	r5, [r6, #100]
 80033a6: 6572         	str	r2, [r6, #84]
 80033a8: 6361         	str	r1, [r4, #52]
 80033aa: 6168         	str	r0, [r5, #20]
 80033ac: 6c62         	ldr	r2, [r4, #68]
 80033ae: 2065         	movs	r0, #101
 80033b0: 6f63         	ldr	r3, [r4, #116]
 80033b2: 6564         	str	r4, [r4, #84]
 80033b4: 3000         	adds	r0, #0
 80033b6: 3030         	adds	r0, #48
 80033b8: 3031         	adds	r0, #49
 80033ba: 3032         	adds	r0, #50
 80033bc: 3033         	adds	r0, #51
 80033be: 3034         	adds	r0, #52
 80033c0: 3035         	adds	r0, #53
 80033c2: 3036         	adds	r0, #54
 80033c4: 3037         	adds	r0, #55
 80033c6: 3038         	adds	r0, #56
 80033c8: 3139         	adds	r1, #57
 80033ca: 3130         	adds	r1, #48
 80033cc: 3131         	adds	r1, #49
 80033ce: 3132         	adds	r1, #50
 80033d0: 3133         	adds	r1, #51
 80033d2: 3134         	adds	r1, #52
 80033d4: 3135         	adds	r1, #53
 80033d6: 3136         	adds	r1, #54
 80033d8: 3137         	adds	r1, #55
 80033da: 3138         	adds	r1, #56
 80033dc: 3239         	adds	r2, #57
 80033de: 3230         	adds	r2, #48
 80033e0: 3231         	adds	r2, #49
 80033e2: 3232         	adds	r2, #50
 80033e4: 3233         	adds	r2, #51
 80033e6: 3234         	adds	r2, #52
 80033e8: 3235         	adds	r2, #53
 80033ea: 3236         	adds	r2, #54
 80033ec: 3237         	adds	r2, #55
 80033ee: 3238         	adds	r2, #56
 80033f0: 3339         	adds	r3, #57
 80033f2: 3330         	adds	r3, #48
 80033f4: 3331         	adds	r3, #49
 80033f6: 3332         	adds	r3, #50
 80033f8: 3333         	adds	r3, #51
 80033fa: 3334         	adds	r3, #52
 80033fc: 3335         	adds	r3, #53
 80033fe: 3336         	adds	r3, #54
 8003400: 3337         	adds	r3, #55
 8003402: 3338         	adds	r3, #56
 8003404: 3439         	adds	r4, #57
 8003406: 3430         	adds	r4, #48
 8003408: 3431         	adds	r4, #49
 800340a: 3432         	adds	r4, #50
 800340c: 3433         	adds	r4, #51
 800340e: 3434         	adds	r4, #52
 8003410: 3435         	adds	r4, #53
 8003412: 3436         	adds	r4, #54
 8003414: 3437         	adds	r4, #55
 8003416: 3438         	adds	r4, #56
 8003418: 3539         	adds	r5, #57
 800341a: 3530         	adds	r5, #48
 800341c: 3531         	adds	r5, #49
 800341e: 3532         	adds	r5, #50
 8003420: 3533         	adds	r5, #51
 8003422: 3534         	adds	r5, #52
 8003424: 3535         	adds	r5, #53
 8003426: 3536         	adds	r5, #54
 8003428: 3537         	adds	r5, #55
 800342a: 3538         	adds	r5, #56
 800342c: 3639         	adds	r6, #57
 800342e: 3630         	adds	r6, #48
 8003430: 3631         	adds	r6, #49
 8003432: 3632         	adds	r6, #50
 8003434: 3633         	adds	r6, #51
 8003436: 3634         	adds	r6, #52
 8003438: 3635         	adds	r6, #53
 800343a: 3636         	adds	r6, #54
 800343c: 3637         	adds	r6, #55
 800343e: 3638         	adds	r6, #56
 8003440: 3739         	adds	r7, #57
 8003442: 3730         	adds	r7, #48
 8003444: 3731         	adds	r7, #49
 8003446: 3732         	adds	r7, #50
 8003448: 3733         	adds	r7, #51
 800344a: 3734         	adds	r7, #52
 800344c: 3735         	adds	r7, #53
 800344e: 3736         	adds	r7, #54
 8003450: 3737         	adds	r7, #55
 8003452: 3738         	adds	r7, #56
 8003454: 3839         	subs	r0, #57
 8003456: 3830         	subs	r0, #48
 8003458: 3831         	subs	r0, #49
 800345a: 3832         	subs	r0, #50
 800345c: 3833         	subs	r0, #51
 800345e: 3834         	subs	r0, #52
 8003460: 3835         	subs	r0, #53
 8003462: 3836         	subs	r0, #54
 8003464: 3837         	subs	r0, #55
 8003466: 3838         	subs	r0, #56
 8003468: 3939         	subs	r1, #57
 800346a: 3930         	subs	r1, #48
 800346c: 3931         	subs	r1, #49
 800346e: 3932         	subs	r1, #50
 8003470: 3933         	subs	r1, #51
 8003472: 3934         	subs	r1, #52
 8003474: 3935         	subs	r1, #53
 8003476: 3936         	subs	r1, #54
 8003478: 3937         	subs	r1, #55
 800347a: 3938         	subs	r1, #56
 800347c: 0039         	movs	r1, r7
 800347e: 6873         	ldr	r3, [r6, #4]
 8003480: 6669         	str	r1, [r5, #100]
 8003482: 2074         	movs	r0, #116
 8003484: 6d61         	ldr	r1, [r4, #84]
 8003486: 756f         	strb	r7, [r5, #21]
 8003488: 746e         	strb	r6, [r5, #17]
 800348a: 6920         	ldr	r0, [r4, #16]
 800348c: 2073         	movs	r0, #115
 800348e: 7267         	strb	r7, [r4, #9]
 8003490: 6165         	str	r5, [r4, #20]
 8003492: 6574         	str	r4, [r6, #84]
 8003494: 2072         	movs	r0, #114
 8003496: 6874         	ldr	r4, [r6, #4]
 8003498: 6e61         	ldr	r1, [r4, #100]
 800349a: 7420         	strb	r0, [r4, #16]
 800349c: 6568         	str	r0, [r5, #84]
 800349e: 7420         	strb	r0, [r4, #16]
 80034a0: 7079         	strb	r1, [r7, #1]
 80034a2: 2065         	movs	r0, #101
 80034a4: 6973         	ldr	r3, [r6, #20]
 80034a6: 657a         	str	r2, [r7, #84]
 80034a8: 6100         	str	r0, [r0, #16]
 80034aa: 7474         	strb	r4, [r6, #17]
 80034ac: 6d65         	ldr	r5, [r4, #84]
 80034ae: 7470         	strb	r0, [r6, #17]
 80034b0: 7420         	strb	r0, [r4, #16]
 80034b2: 206f         	movs	r0, #111
 80034b4: 6e75         	ldr	r5, [r6, #100]
 80034b6: 7277         	strb	r7, [r6, #9]
 80034b8: 7061         	strb	r1, [r4, #1]
 80034ba: 6520         	str	r0, [r4, #80]
 80034bc: 7272         	strb	r2, [r6, #9]
 80034be: 726f         	strb	r7, [r5, #9]
 80034c0: 203a         	movs	r0, #58
 80034c2: 737b         	strb	r3, [r7, #13]
 80034c4: 007d         	lsls	r5, r7, #1
 80034c6: 7b73         	ldrb	r3, [r6, #13]
 80034c8: 2e20         	cmp	r6, #32
 80034ca: 2e2e         	cmp	r6, #46
 80034cc: 7d20         	ldrb	r0, [r4, #20]
		...
 8007ffe: 0000         	movs	r0, r0

08008000 <vector_table>:
 8008000: 8000         	strh	r0, [r0]
 8008002: 2001         	movs	r0, #1
 8008004: 8273         	strh	r3, [r6, #18]
 8008006: 0800         	lsrs	r0, r0, #32
 8008008: 848b         	strh	r3, [r1, #36]
 800800a: 0800         	lsrs	r0, r0, #32
 800800c: 848d         	strh	r5, [r1, #36]
 800800e: 0800         	lsrs	r0, r0, #32
 8008010: 848d         	strh	r5, [r1, #36]
 8008012: 0800         	lsrs	r0, r0, #32
 8008014: 848d         	strh	r5, [r1, #36]
 8008016: 0800         	lsrs	r0, r0, #32
 8008018: 848d         	strh	r5, [r1, #36]
 800801a: 0800         	lsrs	r0, r0, #32
		...
 800802c: 848d         	strh	r5, [r1, #36]
 800802e: 0800         	lsrs	r0, r0, #32
 8008030: 848d         	strh	r5, [r1, #36]
 8008032: 0800         	lsrs	r0, r0, #32
 8008034: 0000         	movs	r0, r0
 8008036: 0000         	movs	r0, r0
 8008038: 848d         	strh	r5, [r1, #36]
 800803a: 0800         	lsrs	r0, r0, #32
 800803c: 8491         	strh	r1, [r2, #36]
 800803e: 0800         	lsrs	r0, r0, #32
 8008040: 848d         	strh	r5, [r1, #36]
 8008042: 0800         	lsrs	r0, r0, #32
 8008044: 848d         	strh	r5, [r1, #36]
 8008046: 0800         	lsrs	r0, r0, #32
 8008048: 848d         	strh	r5, [r1, #36]
 800804a: 0800         	lsrs	r0, r0, #32
 800804c: 848d         	strh	r5, [r1, #36]
 800804e: 0800         	lsrs	r0, r0, #32
 8008050: 848d         	strh	r5, [r1, #36]
 8008052: 0800         	lsrs	r0, r0, #32
 8008054: 848d         	strh	r5, [r1, #36]
 8008056: 0800         	lsrs	r0, r0, #32
 8008058: 848d         	strh	r5, [r1, #36]
 800805a: 0800         	lsrs	r0, r0, #32
 800805c: 848d         	strh	r5, [r1, #36]
 800805e: 0800         	lsrs	r0, r0, #32
 8008060: 848d         	strh	r5, [r1, #36]
 8008062: 0800         	lsrs	r0, r0, #32
 8008064: 848d         	strh	r5, [r1, #36]
 8008066: 0800         	lsrs	r0, r0, #32
 8008068: 848d         	strh	r5, [r1, #36]
 800806a: 0800         	lsrs	r0, r0, #32
 800806c: 848d         	strh	r5, [r1, #36]
 800806e: 0800         	lsrs	r0, r0, #32
 8008070: 848d         	strh	r5, [r1, #36]
 8008072: 0800         	lsrs	r0, r0, #32
 8008074: 848d         	strh	r5, [r1, #36]
 8008076: 0800         	lsrs	r0, r0, #32
 8008078: 848d         	strh	r5, [r1, #36]
 800807a: 0800         	lsrs	r0, r0, #32
 800807c: 848d         	strh	r5, [r1, #36]
 800807e: 0800         	lsrs	r0, r0, #32
 8008080: 848d         	strh	r5, [r1, #36]
 8008082: 0800         	lsrs	r0, r0, #32
 8008084: 848d         	strh	r5, [r1, #36]
 8008086: 0800         	lsrs	r0, r0, #32
 8008088: 848d         	strh	r5, [r1, #36]
 800808a: 0800         	lsrs	r0, r0, #32
 800808c: 848d         	strh	r5, [r1, #36]
 800808e: 0800         	lsrs	r0, r0, #32
 8008090: 848d         	strh	r5, [r1, #36]
 8008092: 0800         	lsrs	r0, r0, #32
 8008094: 848d         	strh	r5, [r1, #36]
 8008096: 0800         	lsrs	r0, r0, #32
 8008098: 848d         	strh	r5, [r1, #36]
 800809a: 0800         	lsrs	r0, r0, #32
 800809c: 848d         	strh	r5, [r1, #36]
 800809e: 0800         	lsrs	r0, r0, #32
 80080a0: 848d         	strh	r5, [r1, #36]
 80080a2: 0800         	lsrs	r0, r0, #32
 80080a4: 848d         	strh	r5, [r1, #36]
 80080a6: 0800         	lsrs	r0, r0, #32
 80080a8: 848d         	strh	r5, [r1, #36]
 80080aa: 0800         	lsrs	r0, r0, #32
 80080ac: 848d         	strh	r5, [r1, #36]
 80080ae: 0800         	lsrs	r0, r0, #32
 80080b0: 848d         	strh	r5, [r1, #36]
 80080b2: 0800         	lsrs	r0, r0, #32
 80080b4: 848d         	strh	r5, [r1, #36]
 80080b6: 0800         	lsrs	r0, r0, #32
 80080b8: 848d         	strh	r5, [r1, #36]
 80080ba: 0800         	lsrs	r0, r0, #32
 80080bc: 848d         	strh	r5, [r1, #36]
 80080be: 0800         	lsrs	r0, r0, #32
 80080c0: 848d         	strh	r5, [r1, #36]
 80080c2: 0800         	lsrs	r0, r0, #32
 80080c4: 848d         	strh	r5, [r1, #36]
 80080c6: 0800         	lsrs	r0, r0, #32
 80080c8: 848d         	strh	r5, [r1, #36]
 80080ca: 0800         	lsrs	r0, r0, #32
 80080cc: 848d         	strh	r5, [r1, #36]
 80080ce: 0800         	lsrs	r0, r0, #32
 80080d0: 848d         	strh	r5, [r1, #36]
 80080d2: 0800         	lsrs	r0, r0, #32
 80080d4: 848d         	strh	r5, [r1, #36]
 80080d6: 0800         	lsrs	r0, r0, #32
 80080d8: 848d         	strh	r5, [r1, #36]
 80080da: 0800         	lsrs	r0, r0, #32
 80080dc: 848d         	strh	r5, [r1, #36]
 80080de: 0800         	lsrs	r0, r0, #32
 80080e0: 848d         	strh	r5, [r1, #36]
 80080e2: 0800         	lsrs	r0, r0, #32
 80080e4: 848d         	strh	r5, [r1, #36]
 80080e6: 0800         	lsrs	r0, r0, #32
 80080e8: 848d         	strh	r5, [r1, #36]
 80080ea: 0800         	lsrs	r0, r0, #32
 80080ec: 848d         	strh	r5, [r1, #36]
 80080ee: 0800         	lsrs	r0, r0, #32
 80080f0: 848d         	strh	r5, [r1, #36]
 80080f2: 0800         	lsrs	r0, r0, #32
 80080f4: 848d         	strh	r5, [r1, #36]
 80080f6: 0800         	lsrs	r0, r0, #32
 80080f8: 848d         	strh	r5, [r1, #36]
 80080fa: 0800         	lsrs	r0, r0, #32
 80080fc: 848d         	strh	r5, [r1, #36]
 80080fe: 0800         	lsrs	r0, r0, #32
 8008100: 848d         	strh	r5, [r1, #36]
 8008102: 0800         	lsrs	r0, r0, #32
 8008104: 848d         	strh	r5, [r1, #36]
 8008106: 0800         	lsrs	r0, r0, #32
 8008108: 848d         	strh	r5, [r1, #36]
 800810a: 0800         	lsrs	r0, r0, #32
 800810c: 848d         	strh	r5, [r1, #36]
 800810e: 0800         	lsrs	r0, r0, #32
 8008110: 848d         	strh	r5, [r1, #36]
 8008112: 0800         	lsrs	r0, r0, #32
 8008114: 848d         	strh	r5, [r1, #36]
 8008116: 0800         	lsrs	r0, r0, #32
 8008118: 848d         	strh	r5, [r1, #36]
 800811a: 0800         	lsrs	r0, r0, #32
 800811c: 848d         	strh	r5, [r1, #36]
 800811e: 0800         	lsrs	r0, r0, #32
 8008120: 848d         	strh	r5, [r1, #36]
 8008122: 0800         	lsrs	r0, r0, #32
 8008124: 848d         	strh	r5, [r1, #36]
 8008126: 0800         	lsrs	r0, r0, #32
 8008128: 848d         	strh	r5, [r1, #36]
 800812a: 0800         	lsrs	r0, r0, #32
 800812c: 848d         	strh	r5, [r1, #36]
 800812e: 0800         	lsrs	r0, r0, #32
 8008130: 848d         	strh	r5, [r1, #36]
 8008132: 0800         	lsrs	r0, r0, #32
 8008134: 848d         	strh	r5, [r1, #36]
 8008136: 0800         	lsrs	r0, r0, #32
 8008138: 848d         	strh	r5, [r1, #36]
 800813a: 0800         	lsrs	r0, r0, #32
 800813c: 848d         	strh	r5, [r1, #36]
 800813e: 0800         	lsrs	r0, r0, #32
 8008140: 848d         	strh	r5, [r1, #36]
 8008142: 0800         	lsrs	r0, r0, #32
 8008144: 848d         	strh	r5, [r1, #36]
 8008146: 0800         	lsrs	r0, r0, #32
 8008148: 848d         	strh	r5, [r1, #36]
 800814a: 0800         	lsrs	r0, r0, #32
 800814c: 848d         	strh	r5, [r1, #36]
 800814e: 0800         	lsrs	r0, r0, #32
 8008150: 848d         	strh	r5, [r1, #36]
 8008152: 0800         	lsrs	r0, r0, #32
 8008154: 848d         	strh	r5, [r1, #36]
 8008156: 0800         	lsrs	r0, r0, #32
 8008158: 848d         	strh	r5, [r1, #36]
 800815a: 0800         	lsrs	r0, r0, #32
 800815c: 848d         	strh	r5, [r1, #36]
 800815e: 0800         	lsrs	r0, r0, #32
 8008160: 848d         	strh	r5, [r1, #36]
 8008162: 0800         	lsrs	r0, r0, #32
 8008164: 848d         	strh	r5, [r1, #36]
 8008166: 0800         	lsrs	r0, r0, #32
 8008168: 848d         	strh	r5, [r1, #36]
 800816a: 0800         	lsrs	r0, r0, #32
 800816c: 848d         	strh	r5, [r1, #36]
 800816e: 0800         	lsrs	r0, r0, #32
 8008170: 848d         	strh	r5, [r1, #36]
 8008172: 0800         	lsrs	r0, r0, #32
 8008174: 848d         	strh	r5, [r1, #36]
 8008176: 0800         	lsrs	r0, r0, #32
 8008178: 848d         	strh	r5, [r1, #36]
 800817a: 0800         	lsrs	r0, r0, #32
 800817c: 848d         	strh	r5, [r1, #36]
 800817e: 0800         	lsrs	r0, r0, #32
 8008180: 848d         	strh	r5, [r1, #36]
 8008182: 0800         	lsrs	r0, r0, #32
 8008184: 848d         	strh	r5, [r1, #36]
 8008186: 0800         	lsrs	r0, r0, #32
 8008188: d4d4         	bmi	0x8008134 <vector_table+0x134> @ imm = #-88
 800818a: d4d4         	bmi	0x8008136 <vector_table+0x136> @ imm = #-88
 800818c: d4d4         	bmi	0x8008138 <vector_table+0x138> @ imm = #-88
 800818e: d4d4         	bmi	0x800813a <vector_table+0x13a> @ imm = #-88

08008190 <main>:
 8008190: b580         	push	{r7, lr}
 8008192: 466f         	mov	r7, sp
 8008194: b082         	sub	sp, #8
 8008196: f64e 5108    	movw	r1, #60680
 800819a: f2ce 0100    	movt	r1, #57344
 800819e: f44f 4000    	mov.w	r0, #32768
 80081a2: 6008         	str	r0, [r1]
 80081a4: f44f 507a    	mov.w	r0, #16000
 80081a8: 9001         	str	r0, [sp, #4]
 80081aa: f64e 5114    	movw	r1, #60692
 80081ae: f2ce 0100    	movt	r1, #57344
 80081b2: f643 607f    	movw	r0, #15999
 80081b6: 6008         	str	r0, [r1]
 80081b8: f64e 5118    	movw	r1, #60696
 80081bc: f2ce 0100    	movt	r1, #57344
 80081c0: 2000         	movs	r0, #0
 80081c2: 6008         	str	r0, [r1]
 80081c4: f64e 5110    	movw	r1, #60688
 80081c8: f2ce 0100    	movt	r1, #57344
 80081cc: 2007         	movs	r0, #7
 80081ce: 6008         	str	r0, [r1]
 80081d0: f643 0130    	movw	r1, #14384
 80081d4: f2c4 0102    	movt	r1, #16386
 80081d8: 6808         	ldr	r0, [r1]
 80081da: f040 0001    	orr	r0, r0, #1
 80081de: 6008         	str	r0, [r1]
 80081e0: 2100         	movs	r1, #0
 80081e2: f2c4 0102    	movt	r1, #16386
 80081e6: 6808         	ldr	r0, [r1]
 80081e8: f420 6040    	bic	r0, r0, #3072
 80081ec: 6008         	str	r0, [r1]
 80081ee: 6808         	ldr	r0, [r1]
 80081f0: f440 6080    	orr	r0, r0, #1024
 80081f4: 6008         	str	r0, [r1]
 80081f6: 2104         	movs	r1, #4
 80081f8: f2c4 0102    	movt	r1, #16386
 80081fc: 6808         	ldr	r0, [r1]
 80081fe: f020 0020    	bic	r0, r0, #32
 8008202: 6008         	str	r0, [r1]
 8008204: 2108         	movs	r1, #8
 8008206: f2c4 0102    	movt	r1, #16386
 800820a: 6808         	ldr	r0, [r1]
 800820c: f420 6040    	bic	r0, r0, #3072
 8008210: 6008         	str	r0, [r1]
 8008212: 6808         	ldr	r0, [r1]
 8008214: f440 6000    	orr	r0, r0, #2048
 8008218: 6008         	str	r0, [r1]
 800821a: 210c         	movs	r1, #12
 800821c: f2c4 0102    	movt	r1, #16386
 8008220: 6808         	ldr	r0, [r1]
 8008222: f420 6040    	bic	r0, r0, #3072
 8008226: 6008         	str	r0, [r1]
 8008228: e7ff         	b	0x800822a <main+0x9a>   @ imm = #-2
 800822a: 2114         	movs	r1, #20
 800822c: f2c4 0102    	movt	r1, #16386
 8008230: 6808         	ldr	r0, [r1]
 8008232: f080 0020    	eor	r0, r0, #32
 8008236: 6008         	str	r0, [r1]
 8008238: f44f 707a    	mov.w	r0, #1000
 800823c: f000 f801    	bl	0x8008242 <core.system.delay> @ imm = #2
 8008240: e7f3         	b	0x800822a <main+0x9a>   @ imm = #-26

08008242 <core.system.delay>:
 8008242: b580         	push	{r7, lr}
 8008244: 466f         	mov	r7, sp
 8008246: b084         	sub	sp, #16
 8008248: 9000         	str	r0, [sp]
 800824a: 9002         	str	r0, [sp, #8]
 800824c: f000 f928    	bl	0x80084a0 <core.system.get_ticks> @ imm = #592
 8008250: 4601         	mov	r1, r0
 8008252: 9101         	str	r1, [sp, #4]
 8008254: 9003         	str	r0, [sp, #12]
 8008256: e001         	b	0x800825c <core.system.delay+0x1a> @ imm = #2
 8008258: b004         	add	sp, #16
 800825a: bd80         	pop	{r7, pc}
 800825c: f000 f920    	bl	0x80084a0 <core.system.get_ticks> @ imm = #576
 8008260: 9a01         	ldr	r2, [sp, #4]
 8008262: 9900         	ldr	r1, [sp]
 8008264: 1a80         	subs	r0, r0, r2
 8008266: 4288         	cmp	r0, r1
 8008268: d301         	blo	0x800826e <core.system.delay+0x2c> @ imm = #2
 800826a: e001         	b	0x8008270 <core.system.delay+0x2e> @ imm = #2
 800826c: e7f6         	b	0x800825c <core.system.delay+0x1a> @ imm = #-20
 800826e: e7fd         	b	0x800826c <core.system.delay+0x2a> @ imm = #-6
 8008270: e7f2         	b	0x8008258 <core.system.delay+0x16> @ imm = #-28

08008272 <_start>:
 8008272: b580         	push	{r7, lr}
 8008274: 466f         	mov	r7, sp
 8008276: b092         	sub	sp, #72
 8008278: b672         	cpsid i
 800827a: e7ff         	b	0x800827c <_start+0xa>  @ imm = #-2
 800827c: f240 216c    	movw	r1, #620
 8008280: f2c2 0100    	movt	r1, #8192
 8008284: 910b         	str	r1, [sp, #44]
 8008286: f240 2070    	movw	r0, #624
 800828a: f2c2 0000    	movt	r0, #8192
 800828e: 900c         	str	r0, [sp, #48]
 8008290: 1a43         	subs	r3, r0, r1
 8008292: f04f 0200    	mov.w	r2, #0
 8008296: f142 0200    	adc	r2, r2, #0
 800829a: f082 0201    	eor	r2, r2, #1
 800829e: 930a         	str	r3, [sp, #40]
 80082a0: 4288         	cmp	r0, r1
 80082a2: d315         	blo	0x80082d0 <_start+0x5e> @ imm = #42
 80082a4: e020         	b	0x80082e8 <_start+0x76> @ imm = #64
 80082a6: f240 0100    	movw	r1, #0
 80082aa: f2c2 0100    	movt	r1, #8192
 80082ae: 910e         	str	r1, [sp, #56]
 80082b0: f240 206c    	movw	r0, #620
 80082b4: f2c2 0000    	movt	r0, #8192
 80082b8: 900f         	str	r0, [sp, #60]
 80082ba: 1a43         	subs	r3, r0, r1
 80082bc: f04f 0200    	mov.w	r2, #0
 80082c0: f142 0200    	adc	r2, r2, #0
 80082c4: f082 0201    	eor	r2, r2, #1
 80082c8: 9309         	str	r3, [sp, #36]
 80082ca: 4288         	cmp	r0, r1
 80082cc: d32b         	blo	0x8008326 <_start+0xb4> @ imm = #86
 80082ce: e036         	b	0x800833e <_start+0xcc> @ imm = #108
 80082d0: f240 0000    	movw	r0, #0
 80082d4: f2c2 0000    	movt	r0, #8192
 80082d8: f24b 1388    	movw	r3, #45448
 80082dc: f6c0 0300    	movt	r3, #2048
 80082e0: 2110         	movs	r1, #16
 80082e2: 2200         	movs	r2, #0
 80082e4: f000 f8a8    	bl	0x8008438 <builtin.default_panic> @ imm = #336
 80082e8: 980a         	ldr	r0, [sp, #40]
 80082ea: 4601         	mov	r1, r0
 80082ec: 9108         	str	r1, [sp, #32]
 80082ee: 900d         	str	r0, [sp, #52]
 80082f0: 2800         	cmp	r0, #0
 80082f2: d204         	bhs	0x80082fe <_start+0x8c> @ imm = #8
 80082f4: e004         	b	0x8008300 <_start+0x8e> @ imm = #8
 80082f6: 9808         	ldr	r0, [sp, #32]
 80082f8: 2800         	cmp	r0, #0
 80082fa: d20d         	bhs	0x8008318 <_start+0xa6> @ imm = #26
 80082fc: e00d         	b	0x800831a <_start+0xa8> @ imm = #26
 80082fe: e7fa         	b	0x80082f6 <_start+0x84> @ imm = #-12
 8008300: 9908         	ldr	r1, [sp, #32]
 8008302: 2000         	movs	r0, #0
 8008304: f000 f89f    	bl	0x8008446 <builtin.panicStartGreaterThanEnd> @ imm = #318
 8008308: 9908         	ldr	r1, [sp, #32]
 800830a: f240 206c    	movw	r0, #620
 800830e: f2c2 0000    	movt	r0, #8192
 8008312: f002 ff03    	bl	0x800b11c <__aeabi_memclr> @ imm = #11782
 8008316: e7c6         	b	0x80082a6 <_start+0x34> @ imm = #-116
 8008318: e7f6         	b	0x8008308 <_start+0x96> @ imm = #-20
 800831a: 9908         	ldr	r1, [sp, #32]
 800831c: 2000         	movs	r0, #0
 800831e: f000 f8a3    	bl	0x8008468 <builtin.panicOutOfBounds> @ imm = #326
 8008322: b662         	cpsie i
 8008324: e07a         	b	0x800841c <_start+0x1aa> @ imm = #244
 8008326: f240 0000    	movw	r0, #0
 800832a: f2c2 0000    	movt	r0, #8192
 800832e: f24b 1388    	movw	r3, #45448
 8008332: f6c0 0300    	movt	r3, #2048
 8008336: 2110         	movs	r1, #16
 8008338: 2200         	movs	r2, #0
 800833a: f000 f87d    	bl	0x8008438 <builtin.default_panic> @ imm = #250
 800833e: 9809         	ldr	r0, [sp, #36]
 8008340: 4601         	mov	r1, r0
 8008342: 9107         	str	r1, [sp, #28]
 8008344: 9010         	str	r0, [sp, #64]
 8008346: f24b 3134    	movw	r1, #45876
 800834a: f6c0 0100    	movt	r1, #2048
 800834e: 9111         	str	r1, [sp, #68]
 8008350: 2800         	cmp	r0, #0
 8008352: d204         	bhs	0x800835e <_start+0xec> @ imm = #8
 8008354: e004         	b	0x8008360 <_start+0xee> @ imm = #8
 8008356: 9807         	ldr	r0, [sp, #28]
 8008358: 2800         	cmp	r0, #0
 800835a: d210         	bhs	0x800837e <_start+0x10c> @ imm = #32
 800835c: e010         	b	0x8008380 <_start+0x10e> @ imm = #32
 800835e: e7fa         	b	0x8008356 <_start+0xe4> @ imm = #-12
 8008360: 9907         	ldr	r1, [sp, #28]
 8008362: 2000         	movs	r0, #0
 8008364: f000 f86f    	bl	0x8008446 <builtin.panicStartGreaterThanEnd> @ imm = #222
 8008368: 9807         	ldr	r0, [sp, #28]
 800836a: f240 0100    	movw	r1, #0
 800836e: f2c2 0100    	movt	r1, #8192
 8008372: 4602         	mov	r2, r0
 8008374: 9205         	str	r2, [sp, #20]
 8008376: 9106         	str	r1, [sp, #24]
 8008378: 2800         	cmp	r0, #0
 800837a: d209         	bhs	0x8008390 <_start+0x11e> @ imm = #18
 800837c: e009         	b	0x8008392 <_start+0x120> @ imm = #18
 800837e: e7f3         	b	0x8008368 <_start+0xf6> @ imm = #-26
 8008380: 9907         	ldr	r1, [sp, #28]
 8008382: 2000         	movs	r0, #0
 8008384: f000 f870    	bl	0x8008468 <builtin.panicOutOfBounds> @ imm = #224
 8008388: 9807         	ldr	r0, [sp, #28]
 800838a: 2800         	cmp	r0, #0
 800838c: d211         	bhs	0x80083b2 <_start+0x140> @ imm = #34
 800838e: e011         	b	0x80083b4 <_start+0x142> @ imm = #34
 8008390: e7fa         	b	0x8008388 <_start+0x116> @ imm = #-12
 8008392: 9907         	ldr	r1, [sp, #28]
 8008394: 2000         	movs	r0, #0
 8008396: f000 f856    	bl	0x8008446 <builtin.panicStartGreaterThanEnd> @ imm = #172
 800839a: 9805         	ldr	r0, [sp, #20]
 800839c: 9907         	ldr	r1, [sp, #28]
 800839e: f24b 3234    	movw	r2, #45876
 80083a2: f6c0 0200    	movt	r2, #2048
 80083a6: 9203         	str	r2, [sp, #12]
 80083a8: 4602         	mov	r2, r0
 80083aa: 9204         	str	r2, [sp, #16]
 80083ac: 4288         	cmp	r0, r1
 80083ae: d015         	beq	0x80083dc <_start+0x16a> @ imm = #42
 80083b0: e015         	b	0x80083de <_start+0x16c> @ imm = #42
 80083b2: e7f2         	b	0x800839a <_start+0x128> @ imm = #-28
 80083b4: 9907         	ldr	r1, [sp, #28]
 80083b6: 2000         	movs	r0, #0
 80083b8: f000 f856    	bl	0x8008468 <builtin.panicOutOfBounds> @ imm = #172
 80083bc: 9806         	ldr	r0, [sp, #24]
 80083be: 9a04         	ldr	r2, [sp, #16]
 80083c0: 9903         	ldr	r1, [sp, #12]
 80083c2: 460b         	mov	r3, r1
 80083c4: 9301         	str	r3, [sp, #4]
 80083c6: 4411         	add	r1, r2
 80083c8: 4402         	add	r2, r0
 80083ca: 9202         	str	r2, [sp, #8]
 80083cc: 4288         	cmp	r0, r1
 80083ce: d218         	bhs	0x8008402 <_start+0x190> @ imm = #48
 80083d0: e7ff         	b	0x80083d2 <_start+0x160> @ imm = #-2
 80083d2: 9801         	ldr	r0, [sp, #4]
 80083d4: 9902         	ldr	r1, [sp, #8]
 80083d6: 4288         	cmp	r0, r1
 80083d8: d213         	bhs	0x8008402 <_start+0x190> @ imm = #38
 80083da: e013         	b	0x8008404 <_start+0x192> @ imm = #38
 80083dc: e7ee         	b	0x80083bc <_start+0x14a> @ imm = #-36
 80083de: f240 0011    	movw	r0, #17
 80083e2: f2c2 0000    	movt	r0, #8192
 80083e6: f24b 1388    	movw	r3, #45448
 80083ea: f6c0 0300    	movt	r3, #2048
 80083ee: 2128         	movs	r1, #40
 80083f0: 2200         	movs	r2, #0
 80083f2: f000 f821    	bl	0x8008438 <builtin.default_panic> @ imm = #66
 80083f6: 9a05         	ldr	r2, [sp, #20]
 80083f8: 9901         	ldr	r1, [sp, #4]
 80083fa: 9806         	ldr	r0, [sp, #24]
 80083fc: f002 fe4a    	bl	0x800b094 <__aeabi_memcpy> @ imm = #11412
 8008400: e78f         	b	0x8008322 <_start+0xb0> @ imm = #-226
 8008402: e7f8         	b	0x80083f6 <_start+0x184> @ imm = #-16
 8008404: f240 003a    	movw	r0, #58
 8008408: f2c2 0000    	movt	r0, #8192
 800840c: f24b 1388    	movw	r3, #45448
 8008410: f6c0 0300    	movt	r3, #2048
 8008414: 2117         	movs	r1, #23
 8008416: 2200         	movs	r2, #0
 8008418: f000 f80e    	bl	0x8008438 <builtin.default_panic> @ imm = #28
 800841c: f7ff feb8    	bl	0x8008190 <main>        @ imm = #-656
 8008420: f240 0052    	movw	r0, #82
 8008424: f2c2 0000    	movt	r0, #8192
 8008428: f24b 1388    	movw	r3, #45448
 800842c: f6c0 0300    	movt	r3, #2048
 8008430: 211c         	movs	r1, #28
 8008432: 2200         	movs	r2, #0
 8008434: f000 f800    	bl	0x8008438 <builtin.default_panic> @ imm = #0

08008438 <builtin.default_panic>:
 8008438: b083         	sub	sp, #12
 800843a: 9101         	str	r1, [sp, #4]
 800843c: 9000         	str	r0, [sp]
 800843e: 9202         	str	r2, [sp, #8]
 8008440: e7ff         	b	0x8008442 <builtin.default_panic+0xa> @ imm = #-2
 8008442: be00         	bkpt	#0
 8008444: e7fd         	b	0x8008442 <builtin.default_panic+0xa> @ imm = #-6

08008446 <builtin.panicStartGreaterThanEnd>:
 8008446: b580         	push	{r7, lr}
 8008448: 466f         	mov	r7, sp
 800844a: b086         	sub	sp, #24
 800844c: 9000         	str	r0, [sp]
 800844e: 9101         	str	r1, [sp, #4]
 8008450: f8cd e008    	str.w	lr, [sp, #8]
 8008454: 2201         	movs	r2, #1
 8008456: f88d 200c    	strb.w	r2, [sp, #12]
 800845a: 9004         	str	r0, [sp, #16]
 800845c: 9105         	str	r1, [sp, #20]
 800845e: 2000         	movs	r0, #0
 8008460: a902         	add	r1, sp, #8
 8008462: aa04         	add	r2, sp, #16
 8008464: f000 f822    	bl	0x80084ac <debug.panicExtra__anon_1130> @ imm = #68

08008468 <builtin.panicOutOfBounds>:
 8008468: b580         	push	{r7, lr}
 800846a: 466f         	mov	r7, sp
 800846c: b086         	sub	sp, #24
 800846e: 9000         	str	r0, [sp]
 8008470: 9101         	str	r1, [sp, #4]
 8008472: f8cd e008    	str.w	lr, [sp, #8]
 8008476: 2201         	movs	r2, #1
 8008478: f88d 200c    	strb.w	r2, [sp, #12]
 800847c: 9004         	str	r0, [sp, #16]
 800847e: 9105         	str	r1, [sp, #20]
 8008480: 2000         	movs	r0, #0
 8008482: a902         	add	r1, sp, #8
 8008484: aa04         	add	r2, sp, #16
 8008486: f000 f8bf    	bl	0x8008608 <debug.panicExtra__anon_1131> @ imm = #382

0800848a <vector_table.null_handler>:
 800848a: 4770         	bx	lr

0800848c <vector_table.default_handler>:
 800848c: e7ff         	b	0x800848e <vector_table.default_handler+0x2> @ imm = #-2
 800848e: e7fe         	b	0x800848e <vector_table.default_handler+0x2> @ imm = #-4

08008490 <core.system.systick_handler>:
 8008490: f240 216c    	movw	r1, #620
 8008494: f2c2 0100    	movt	r1, #8192
 8008498: 6808         	ldr	r0, [r1]
 800849a: 3001         	adds	r0, #1
 800849c: 6008         	str	r0, [r1]
 800849e: 4770         	bx	lr

080084a0 <core.system.get_ticks>:
 80084a0: f240 206c    	movw	r0, #620
 80084a4: f2c2 0000    	movt	r0, #8192
 80084a8: 6800         	ldr	r0, [r0]
 80084aa: 4770         	bx	lr

080084ac <debug.panicExtra__anon_1130>:
 80084ac: b5b0         	push	{r4, r5, r7, lr}
 80084ae: af02         	add	r7, sp, #8
 80084b0: f5ad 5d87    	sub.w	sp, sp, #4320
 80084b4: b084         	sub	sp, #16
 80084b6: 9206         	str	r2, [sp, #24]
 80084b8: 9107         	str	r1, [sp, #28]
 80084ba: 9008         	str	r0, [sp, #32]
 80084bc: 900c         	str	r0, [sp, #48]
 80084be: 2020         	movs	r0, #32
 80084c0: 902f         	str	r0, [sp, #188]
 80084c2: a80d         	add	r0, sp, #52
 80084c4: 902e         	str	r0, [sp, #184]
 80084c6: 2000         	movs	r0, #0
 80084c8: 902d         	str	r0, [sp, #180]
 80084ca: 982d         	ldr	r0, [sp, #180]
 80084cc: 9009         	str	r0, [sp, #36]
 80084ce: f240 006f    	movw	r0, #111
 80084d2: f2c2 0000    	movt	r0, #8192
 80084d6: 9030         	str	r0, [sp, #192]
 80084d8: f10d 00c5    	add.w	r0, sp, #197
 80084dc: 900a         	str	r0, [sp, #40]
 80084de: f241 010f    	movw	r1, #4111
 80084e2: 22aa         	movs	r2, #170
 80084e4: f002 fe15    	bl	0x800b112 <__aeabi_memset> @ imm = #11306
 80084e8: 980a         	ldr	r0, [sp, #40]
 80084ea: 900b         	str	r0, [sp, #44]
 80084ec: 2001         	movs	r0, #1
 80084ee: b978         	cbnz	r0, 0x8008510 <debug.panicExtra__anon_1130+0x64> @ imm = #30
 80084f0: e00f         	b	0x8008512 <debug.panicExtra__anon_1130+0x66> @ imm = #30
 80084f2: 9a0b         	ldr	r2, [sp, #44]
 80084f4: 9806         	ldr	r0, [sp, #24]
 80084f6: 4669         	mov	r1, sp
 80084f8: 6008         	str	r0, [r1]
 80084fa: f1a7 0024    	sub.w	r0, r7, #36
 80084fe: a92d         	add	r1, sp, #180
 8008500: f44f 5380    	mov.w	r3, #4096
 8008504: f000 f92e    	bl	0x8008764 <fmt.bufPrint__anon_1279> @ imm = #604
 8008508: f837 0c1c    	ldrh	r0, [r7, #-28]
 800850c: b1c8         	cbz	r0, 0x8008542 <debug.panicExtra__anon_1130+0x96> @ imm = #50
 800850e: e01f         	b	0x8008550 <debug.panicExtra__anon_1130+0xa4> @ imm = #62
 8008510: e7ef         	b	0x80084f2 <debug.panicExtra__anon_1130+0x46> @ imm = #-34
 8008512: f44f 5080    	mov.w	r0, #4096
 8008516: f241 010f    	movw	r1, #4111
 800851a: f7ff ffa5    	bl	0x8008468 <builtin.panicOutOfBounds> @ imm = #-182
 800851e: 9b07         	ldr	r3, [sp, #28]
 8008520: 9a08         	ldr	r2, [sp, #32]
 8008522: 9805         	ldr	r0, [sp, #20]
 8008524: 9904         	ldr	r1, [sp, #16]
 8008526: f847 0c18    	str	r0, [r7, #-24]
 800852a: f847 1c14    	str	r1, [r7, #-20]
 800852e: f847 1c0c    	str	r1, [r7, #-12]
 8008532: f847 0c10    	str	r0, [r7, #-16]
 8008536: f857 0c10    	ldr	r0, [r7, #-16]
 800853a: f857 1c0c    	ldr	r1, [r7, #-12]
 800853e: f7ff ff7b    	bl	0x8008438 <builtin.default_panic> @ imm = #-266
 8008542: f857 1c24    	ldr	r1, [r7, #-36]
 8008546: f857 0c20    	ldr	r0, [r7, #-32]
 800854a: 9105         	str	r1, [sp, #20]
 800854c: 9004         	str	r0, [sp, #16]
 800854e: e7e6         	b	0x800851e <debug.panicExtra__anon_1130+0x72> @ imm = #-52
 8008550: f837 0c1c    	ldrh	r0, [r7, #-28]
 8008554: 2801         	cmp	r0, #1
 8008556: d00c         	beq	0x8008572 <debug.panicExtra__anon_1130+0xc6> @ imm = #24
 8008558: e7ff         	b	0x800855a <debug.panicExtra__anon_1130+0xae> @ imm = #-2
 800855a: f240 007f    	movw	r0, #127
 800855e: f2c2 0000    	movt	r0, #8192
 8008562: f24b 1388    	movw	r3, #45448
 8008566: f6c0 0300    	movt	r3, #2048
 800856a: 2117         	movs	r1, #23
 800856c: 2200         	movs	r2, #0
 800856e: f7ff ff63    	bl	0x8008438 <builtin.default_panic> @ imm = #-314
 8008572: f10d 00c5    	add.w	r0, sp, #197
 8008576: f500 5080    	add.w	r0, r0, #4096
 800857a: 9003         	str	r0, [sp, #12]
 800857c: 2001         	movs	r0, #1
 800857e: b9a0         	cbnz	r0, 0x80085aa <debug.panicExtra__anon_1130+0xfe> @ imm = #40
 8008580: e014         	b	0x80085ac <debug.panicExtra__anon_1130+0x100> @ imm = #40
 8008582: 9803         	ldr	r0, [sp, #12]
 8008584: f100 020f    	add.w	r2, r0, #15
 8008588: f240 016f    	movw	r1, #111
 800858c: f2c2 0100    	movt	r1, #8192
 8008590: 310f         	adds	r1, #15
 8008592: 9202         	str	r2, [sp, #8]
 8008594: 4288         	cmp	r0, r1
 8008596: d22a         	bhs	0x80085ee <debug.panicExtra__anon_1130+0x142> @ imm = #84
 8008598: e7ff         	b	0x800859a <debug.panicExtra__anon_1130+0xee> @ imm = #-2
 800859a: 9902         	ldr	r1, [sp, #8]
 800859c: f240 006f    	movw	r0, #111
 80085a0: f2c2 0000    	movt	r0, #8192
 80085a4: 4288         	cmp	r0, r1
 80085a6: d222         	bhs	0x80085ee <debug.panicExtra__anon_1130+0x142> @ imm = #68
 80085a8: e022         	b	0x80085f0 <debug.panicExtra__anon_1130+0x144> @ imm = #68
 80085aa: e7ea         	b	0x8008582 <debug.panicExtra__anon_1130+0xd6> @ imm = #-44
 80085ac: f241 010f    	movw	r1, #4111
 80085b0: 4608         	mov	r0, r1
 80085b2: f7ff ff59    	bl	0x8008468 <builtin.panicOutOfBounds> @ imm = #-334
 80085b6: 9809         	ldr	r0, [sp, #36]
 80085b8: 9a03         	ldr	r2, [sp, #12]
 80085ba: f240 0e6f    	movw	lr, #111
 80085be: f2c2 0e00    	movt	lr, #8192
 80085c2: f8de 1000    	ldr.w	r1, [lr]
 80085c6: f8de 3004    	ldr.w	r3, [lr, #4]
 80085ca: f8de c008    	ldr.w	r12, [lr, #8]
 80085ce: f8de e00b    	ldr.w	lr, [lr, #11]
 80085d2: f8c2 e00b    	str.w	lr, [r2, #11]
 80085d6: f8c2 c008    	str.w	r12, [r2, #8]
 80085da: 6053         	str	r3, [r2, #4]
 80085dc: 6011         	str	r1, [r2]
 80085de: 902d         	str	r0, [sp, #180]
 80085e0: f241 000f    	movw	r0, #4111
 80085e4: f10d 01c5    	add.w	r1, sp, #197
 80085e8: 9105         	str	r1, [sp, #20]
 80085ea: 9004         	str	r0, [sp, #16]
 80085ec: e797         	b	0x800851e <debug.panicExtra__anon_1130+0x72> @ imm = #-210
 80085ee: e7e2         	b	0x80085b6 <debug.panicExtra__anon_1130+0x10a> @ imm = #-60
 80085f0: f240 003a    	movw	r0, #58
 80085f4: f2c2 0000    	movt	r0, #8192
 80085f8: f24b 1388    	movw	r3, #45448
 80085fc: f6c0 0300    	movt	r3, #2048
 8008600: 2117         	movs	r1, #23
 8008602: 2200         	movs	r2, #0
 8008604: f7ff ff18    	bl	0x8008438 <builtin.default_panic> @ imm = #-464


08008ac0 <builtin.returnError>:
 8008ac0: b580         	push	{r7, lr}
 8008ac2: 466f         	mov	r7, sp
 8008ac4: b08c         	sub	sp, #48
 8008ac6: 4601         	mov	r1, r0
 8008ac8: 9105         	str	r1, [sp, #20]
 8008aca: 9107         	str	r1, [sp, #28]
 8008acc: 4670         	mov	r0, lr
 8008ace: 9006         	str	r0, [sp, #24]
 8008ad0: 9108         	str	r1, [sp, #32]
 8008ad2: f8cd e024    	str.w	lr, [sp, #36]
 8008ad6: 6808         	ldr	r0, [r1]
 8008ad8: 6889         	ldr	r1, [r1, #8]
 8008ada: 4288         	cmp	r0, r1
 8008adc: d311         	blo	0x8008b02 <builtin.returnError+0x42> @ imm = #34
 8008ade: e01d         	b	0x8008b1c <builtin.returnError+0x5c> @ imm = #58
 8008ae0: b00c         	add	sp, #48
 8008ae2: bd80         	pop	{r7, pc}
 8008ae4: 9805         	ldr	r0, [sp, #20]
 8008ae6: 900b         	str	r0, [sp, #44]
 8008ae8: 980b         	ldr	r0, [sp, #44]
 8008aea: 9003         	str	r0, [sp, #12]
 8008aec: 6801         	ldr	r1, [r0]
 8008aee: 1c48         	adds	r0, r1, #1
 8008af0: f04f 0200    	mov.w	r2, #0
 8008af4: f142 0200    	adc	r2, r2, #0
 8008af8: 4603         	mov	r3, r0
 8008afa: 9304         	str	r3, [sp, #16]
 8008afc: 4288         	cmp	r0, r1
 8008afe: d319         	blo	0x8008b34 <builtin.returnError+0x74> @ imm = #50
 8008b00: e024         	b	0x8008b4c <builtin.returnError+0x8c> @ imm = #72
 8008b02: 9805         	ldr	r0, [sp, #20]
 8008b04: 900a         	str	r0, [sp, #40]
 8008b06: 990a         	ldr	r1, [sp, #40]
 8008b08: 6800         	ldr	r0, [r0]
 8008b0a: 9000         	str	r0, [sp]
 8008b0c: 684a         	ldr	r2, [r1, #4]
 8008b0e: 9201         	str	r2, [sp, #4]
 8008b10: 6889         	ldr	r1, [r1, #8]
 8008b12: 460a         	mov	r2, r1
 8008b14: 9202         	str	r2, [sp, #8]
 8008b16: 4288         	cmp	r0, r1
 8008b18: d307         	blo	0x8008b2a <builtin.returnError+0x6a> @ imm = #14
 8008b1a: e007         	b	0x8008b2c <builtin.returnError+0x6c> @ imm = #14
 8008b1c: e7e2         	b	0x8008ae4 <builtin.returnError+0x24> @ imm = #-60
 8008b1e: 9806         	ldr	r0, [sp, #24]
 8008b20: 9901         	ldr	r1, [sp, #4]
 8008b22: 9a00         	ldr	r2, [sp]
 8008b24: f841 0022    	str.w	r0, [r1, r2, lsl #2]
 8008b28: e7dc         	b	0x8008ae4 <builtin.returnError+0x24> @ imm = #-72
 8008b2a: e7f8         	b	0x8008b1e <builtin.returnError+0x5e> @ imm = #-16
 8008b2c: 9902         	ldr	r1, [sp, #8]
 8008b2e: 9800         	ldr	r0, [sp]
 8008b30: f7ff fc9a    	bl	0x8008468 <builtin.panicOutOfBounds> @ imm = #-1740
 8008b34: f240 0000    	movw	r0, #0
 8008b38: f2c2 0000    	movt	r0, #8192
 8008b3c: f24b 1388    	movw	r3, #45448
 8008b40: f6c0 0300    	movt	r3, #2048
 8008b44: 2110         	movs	r1, #16
 8008b46: 2200         	movs	r2, #0
 8008b48: f7ff fc76    	bl	0x8008438 <builtin.default_panic> @ imm = #-1812
 8008b4c: 9804         	ldr	r0, [sp, #16]
 8008b4e: 9903         	ldr	r1, [sp, #12]
 8008b50: 6008         	str	r0, [r1]
 8008b52: e7c5         	b	0x8008ae0 <builtin.returnError+0x20> @ imm = #-118
